
zig-out/x86-64/iso/boot/kernel.elf:     file format elf64-x86-64


Disassembly of section .boot:

0000000000100000 <__KERNEL_START__>:
  100000:	d6                   	(bad)
  100001:	50                   	push   %rax
  100002:	52                   	push   %rdx
  100003:	e8 00 00 00 00       	call   100008 <__KERNEL_START__+0x8>
  100008:	30 00                	xor    %al,(%rax)
  10000a:	00 00                	add    %al,(%rax)
  10000c:	fa                   	cli
  10000d:	ae                   	scas   %es:(%rdi),%al
  10000e:	ad                   	lods   %ds:(%rsi),%eax
  10000f:	17                   	(bad)

0000000000100010 <info_tag>:
  100010:	01 00                	add    %eax,(%rax)
  100012:	00 00                	add    %al,(%rax)
  100014:	10 00                	adc    %al,(%rax)
  100016:	00 00                	add    %al,(%rax)
  100018:	03 00                	add    (%rax),%eax
  10001a:	00 00                	add    %al,(%rax)
  10001c:	06                   	(bad)
  10001d:	00 00                	add    %al,(%rax)
	...

0000000000100020 <align_tag>:
  100020:	06                   	(bad)
  100021:	00 00                	add    %al,(%rax)
  100023:	00 08                	add    %cl,(%rax)
  100025:	00 00                	add    %al,(%rax)
	...

0000000000100028 <align_tag.end>:
  100028:	00 00                	add    %al,(%rax)
  10002a:	00 00                	add    %al,(%rax)
  10002c:	08 00                	or     %al,(%rax)
	...

0000000000100030 <_start32>:
  100030:	bd 00 60 12 00       	mov    $0x126000,%ebp
  100035:	89 ec                	mov    %ebp,%esp
  100037:	89 1d 38 90 11 00    	mov    %ebx,0x119038(%rip)        # 219075 <__KERNEL_END__+0xf3075>
  10003d:	3d 89 62 d7 36       	cmp    $0x36d76289,%eax
  100042:	0f 85 d7 00 00 00    	jne    10011f <_start32.no_multiboot>
  100048:	9c                   	pushf
  100049:	58                   	pop    %rax
  10004a:	89 c1                	mov    %eax,%ecx
  10004c:	35 00 00 20 00       	xor    $0x200000,%eax
  100051:	50                   	push   %rax
  100052:	9d                   	popf
  100053:	9c                   	pushf
  100054:	58                   	pop    %rax
  100055:	51                   	push   %rcx
  100056:	9d                   	popf
  100057:	39 c8                	cmp    %ecx,%eax
  100059:	0f 84 c7 00 00 00    	je     100126 <_start32.no_cpuid>
  10005f:	b8 00 00 00 80       	mov    $0x80000000,%eax
  100064:	0f a2                	cpuid
  100066:	3d 01 00 00 80       	cmp    $0x80000001,%eax
  10006b:	0f 82 bc 00 00 00    	jb     10012d <_start32.no_long_mode>
  100071:	b8 01 00 00 80       	mov    $0x80000001,%eax
  100076:	0f a2                	cpuid
  100078:	f7 c2 00 00 00 20    	test   $0x20000000,%edx
  10007e:	0f 84 a9 00 00 00    	je     10012d <_start32.no_long_mode>
  100084:	31 db                	xor    %ebx,%ebx
  100086:	b8 00 e0 11 00       	mov    $0x11e000,%eax
  10008b:	83 c8 03             	or     $0x3,%eax
  10008e:	a3 00 c0 11 00 89 1d 	movabs %eax,0xc0041d890011c000
  100095:	04 c0 
  100097:	11 00                	adc    %eax,(%rax)
  100099:	a3 f8 cf 11 00 89 1d 	movabs %eax,0xcffc1d890011cff8
  1000a0:	fc cf 
  1000a2:	11 00                	adc    %eax,(%rax)
  1000a4:	b8 00 00 12 00       	mov    $0x120000,%eax
  1000a9:	83 c8 03             	or     $0x3,%eax
  1000ac:	a3 00 e0 11 00 89 1d 	movabs %eax,0xe0041d890011e000
  1000b3:	04 e0 
  1000b5:	11 00                	adc    %eax,(%rax)
  1000b7:	a3 f8 ef 11 00 89 1d 	movabs %eax,0xeffc1d890011eff8
  1000be:	fc ef 
  1000c0:	11 00                	adc    %eax,(%rax)
  1000c2:	31 c9                	xor    %ecx,%ecx

00000000001000c4 <_start32.loop>:
  1000c4:	b8 00 00 20 00       	mov    $0x200000,%eax
  1000c9:	f7 e1                	mul    %ecx
  1000cb:	0d 83 00 00 00       	or     $0x83,%eax
  1000d0:	89 04 cd 00 00 12 00 	mov    %eax,0x120000(,%rcx,8)
  1000d7:	89 1c cd 04 00 12 00 	mov    %ebx,0x120004(,%rcx,8)
  1000de:	41 81 f9 00 02 00 00 	cmp    $0x200,%r9d
  1000e5:	75 dd                	jne    1000c4 <_start32.loop>
  1000e7:	b8 00 c0 11 00       	mov    $0x11c000,%eax
  1000ec:	0f 22 d8             	mov    %rax,%cr3
  1000ef:	0f 20 e0             	mov    %cr4,%rax
  1000f2:	83 c8 20             	or     $0x20,%eax
  1000f5:	0f 22 e0             	mov    %rax,%cr4
  1000f8:	b9 80 00 00 c0       	mov    $0xc0000080,%ecx
  1000fd:	0f 32                	rdmsr
  1000ff:	0d 00 01 00 00       	or     $0x100,%eax
  100104:	0f 30                	wrmsr
  100106:	0f 20 c0             	mov    %cr0,%rax
  100109:	0d 00 00 00 80       	or     $0x80000000,%eax
  10010e:	0f 22 c0             	mov    %rax,%cr0
  100111:	0f 01 15 ea 01 10 00 	lgdt   0x1001ea(%rip)        # 200302 <__KERNEL_END__+0xda302>
  100118:	ea                   	(bad)
  100119:	4e 01 10             	rex.WRX add %r10,(%rax)
  10011c:	00 08                	add    %cl,(%rax)
	...

000000000010011f <_start32.no_multiboot>:
  10011f:	b8 67 01 10 00       	mov    $0x100167,%eax
  100124:	eb 0e                	jmp    100134 <error>

0000000000100126 <_start32.no_cpuid>:
  100126:	b8 a6 01 10 00       	mov    $0x1001a6,%eax
  10012b:	eb 07                	jmp    100134 <error>

000000000010012d <_start32.no_long_mode>:
  10012d:	b8 be 01 10 00       	mov    $0x1001be,%eax
  100132:	eb 00                	jmp    100134 <error>

0000000000100134 <error>:
  100134:	ba 00 80 0b 00       	mov    $0xb8000,%edx
  100139:	b7 04                	mov    $0x4,%bh

000000000010013b <error.loop>:
  10013b:	8a 18                	mov    (%rax),%bl
  10013d:	80 fb 00             	cmp    $0x0,%bl
  100140:	74 09                	je     10014b <error.end>
  100142:	66 89 1a             	mov    %bx,(%rdx)
  100145:	40 83 c2 02          	rex add $0x2,%edx
  100149:	eb f0                	jmp    10013b <error.loop>

000000000010014b <error.end>:
  10014b:	f4                   	hlt
  10014c:	eb fd                	jmp    10014b <error.end>

000000000010014e <trampoline>:
  10014e:	48 bd 00 60 12 c0 ff 	movabs $0xffffffffc0126000,%rbp
  100155:	ff ff ff 
  100158:	48 89 ec             	mov    %rbp,%rsp
  10015b:	48 b8 f0 57 11 c0 ff 	movabs $0xffffffffc01157f0,%rax
  100162:	ff ff ff 
  100165:	ff e0                	jmp    *%rax

0000000000100167 <no_multiboot_str>:
  100167:	54                   	push   %rsp
  100168:	68 65 20 4f 53       	push   $0x534f2065
  10016d:	20 77 61             	and    %dh,0x61(%rdi)
  100170:	73 20                	jae    100192 <no_multiboot_str+0x2b>
  100172:	6e                   	outsb  %ds:(%rsi),(%dx)
  100173:	6f                   	outsl  %ds:(%rsi),(%dx)
  100174:	74 20                	je     100196 <no_multiboot_str+0x2f>
  100176:	6c                   	insb   (%dx),%es:(%rdi)
  100177:	6f                   	outsl  %ds:(%rsi),(%dx)
  100178:	61                   	(bad)
  100179:	64 65 64 20 77 69    	fs gs and %dh,%fs:0x69(%rdi)
  10017f:	74 68                	je     1001e9 <gdt64+0xf>
  100181:	20 61 20             	and    %ah,0x20(%rcx)
  100184:	6d                   	insl   (%dx),%es:(%rdi)
  100185:	75 6c                	jne    1001f3 <gdt64.ptr+0x9>
  100187:	74 69                	je     1001f2 <gdt64.ptr+0x8>
  100189:	62 6f 6f 74 20       	(bad)
  10018e:	32 20                	xor    (%rax),%ah
  100190:	63 6f 6d             	movsxd 0x6d(%rdi),%ebp
  100193:	70 6c                	jo     100201 <gdt64.ptr+0x17>
  100195:	69 65 6e 74 20 62 6f 	imul   $0x6f622074,0x6e(%rbp),%esp
  10019c:	6f                   	outsl  %ds:(%rsi),(%dx)
  10019d:	74 6c                	je     10020b <gdt64.ptr+0x21>
  10019f:	6f                   	outsl  %ds:(%rsi),(%dx)
  1001a0:	61                   	(bad)
  1001a1:	64 65 72 2e          	fs gs jb 1001d3 <no_long_mode_str+0x15>
	...

00000000001001a6 <no_cpuid_str>:
  1001a6:	43 50                	rex.XB push %r8
  1001a8:	55                   	push   %rbp
  1001a9:	49                   	rex.WB
  1001aa:	44 20 69 73          	and    %r13b,0x73(%rcx)
  1001ae:	20 6e 6f             	and    %ch,0x6f(%rsi)
  1001b1:	74 20                	je     1001d3 <no_long_mode_str+0x15>
  1001b3:	73 75                	jae    10022a <gdt64.ptr+0x40>
  1001b5:	70 70                	jo     100227 <gdt64.ptr+0x3d>
  1001b7:	6f                   	outsl  %ds:(%rsi),(%dx)
  1001b8:	72 74                	jb     10022e <gdt64.ptr+0x44>
  1001ba:	65 64 2e 00    	gs fs add %cl,%fs:0x6e(%rdi,%rbp,2)

00000000001001be <no_long_mode_str>:
  1001be:	4c 6f                	rex.WR outsl %ds:(%rsi),(%dx)
  1001c0:	6e                   	outsb  %ds:(%rsi),(%dx)
  1001c1:	67 20 6d 6f          	and    %ch,0x6f(%ebp)
  1001c5:	64 65 20 69 73       	fs and %ch,%gs:0x73(%rcx)
  1001ca:	20 6e 6f             	and    %ch,0x6f(%rsi)
  1001cd:	74 20                	je     1001ef <gdt64.ptr+0x5>
  1001cf:	73 75                	jae    100246 <gdt64.ptr+0x5c>
  1001d1:	70 70                	jo     100243 <gdt64.ptr+0x59>
  1001d3:	6f                   	outsl  %ds:(%rsi),(%dx)
  1001d4:	72 74                	jb     10024a <gdt64.ptr+0x60>
  1001d6:	65 64 2e 00        	gs fs add %al,%fs:(%rax)

00000000001001da <gdt64>:
	...
  1001e6:	00 98 20 00      	add    %bl,0xf0020(%rax)

00000000001001ea <gdt64.ptr>:
  1001ea:	0f 00 da             	ltr    %edx
  1001ed:	01 10                	add    %edx,(%rax)
  1001ef:	00 00                	add    %al,(%rax)
  1001f1:	00 00                	add    %al,(%rax)
	...

Disassembly of section .text:

ffffffffc0101000 <__clzsi2>:
ffffffffc0101000:	89 f8                	mov    %edi,%eax
ffffffffc0101002:	c1 e8 10             	shr    $0x10,%eax
ffffffffc0101005:	31 c9                	xor    %ecx,%ecx
ffffffffc0101007:	81 ff 00 00 01 00    	cmp    $0x10000,%edi
ffffffffc010100d:	0f 92 c1             	setb   %cl
ffffffffc0101010:	0f 42 c7             	cmovb  %edi,%eax
ffffffffc0101013:	c1 e1 04             	shl    $0x4,%ecx
ffffffffc0101016:	8d 51 10             	lea    0x10(%rcx),%edx
ffffffffc0101019:	89 c6                	mov    %eax,%esi
ffffffffc010101b:	c1 ee 08             	shr    $0x8,%esi
ffffffffc010101e:	83 c9 08             	or     $0x8,%ecx
ffffffffc0101021:	3d 00 01 00 00       	cmp    $0x100,%eax
ffffffffc0101026:	0f 42 ca             	cmovb  %edx,%ecx
ffffffffc0101029:	0f 42 f0             	cmovb  %eax,%esi
ffffffffc010102c:	89 f2                	mov    %esi,%edx
ffffffffc010102e:	c1 ea 04             	shr    $0x4,%edx
ffffffffc0101031:	8d 79 fc             	lea    -0x4(%rcx),%edi
ffffffffc0101034:	83 fe 10             	cmp    $0x10,%esi
ffffffffc0101037:	0f 42 f9             	cmovb  %ecx,%edi
ffffffffc010103a:	0f 42 d6             	cmovb  %esi,%edx
ffffffffc010103d:	89 d6                	mov    %edx,%esi
ffffffffc010103f:	c1 ee 02             	shr    $0x2,%esi
ffffffffc0101042:	8d 47 fe             	lea    -0x2(%rdi),%eax
ffffffffc0101045:	83 fa 04             	cmp    $0x4,%edx
ffffffffc0101048:	0f 42 c7             	cmovb  %edi,%eax
ffffffffc010104b:	0f 42 f2             	cmovb  %edx,%esi
ffffffffc010104e:	31 c9                	xor    %ecx,%ecx
ffffffffc0101050:	83 fe 02             	cmp    $0x2,%esi
ffffffffc0101053:	0f 93 c1             	setae  %cl
ffffffffc0101056:	d3 ee                	shr    %cl,%esi
ffffffffc0101058:	29 c8                	sub    %ecx,%eax
ffffffffc010105a:	29 f0                	sub    %esi,%eax
ffffffffc010105c:	c3                   	ret

ffffffffc010105d <__clzdi2>:
ffffffffc010105d:	31 c0                	xor    %eax,%eax
ffffffffc010105f:	48 89 f9             	mov    %rdi,%rcx
ffffffffc0101062:	48 c1 e9 20          	shr    $0x20,%rcx
ffffffffc0101066:	0f 94 c0             	sete   %al
ffffffffc0101069:	48 0f 44 cf          	cmove  %rdi,%rcx
ffffffffc010106d:	c1 e0 05             	shl    $0x5,%eax
ffffffffc0101070:	48 8d 50 20          	lea    0x20(%rax),%rdx
ffffffffc0101074:	48 89 ce             	mov    %rcx,%rsi
ffffffffc0101077:	48 c1 ee 10          	shr    $0x10,%rsi
ffffffffc010107b:	48 83 c8 10          	or     $0x10,%rax
ffffffffc010107f:	48 81 f9 00 00 01 00 	cmp    $0x10000,%rcx
ffffffffc0101086:	48 0f 42 c2          	cmovb  %rdx,%rax
ffffffffc010108a:	48 0f 42 f1          	cmovb  %rcx,%rsi
ffffffffc010108e:	48 89 f1             	mov    %rsi,%rcx
ffffffffc0101091:	48 c1 e9 08          	shr    $0x8,%rcx
ffffffffc0101095:	8d 50 f8             	lea    -0x8(%rax),%edx
ffffffffc0101098:	48 81 fe 00 01 00 00 	cmp    $0x100,%rsi
ffffffffc010109f:	48 0f 42 d0          	cmovb  %rax,%rdx
ffffffffc01010a3:	48 0f 42 ce          	cmovb  %rsi,%rcx
ffffffffc01010a7:	48 89 ce             	mov    %rcx,%rsi
ffffffffc01010aa:	48 c1 ee 04          	shr    $0x4,%rsi
ffffffffc01010ae:	8d 7a fc             	lea    -0x4(%rdx),%edi
ffffffffc01010b1:	48 83 f9 10          	cmp    $0x10,%rcx
ffffffffc01010b5:	48 0f 42 f1          	cmovb  %rcx,%rsi
ffffffffc01010b9:	0f 42 fa             	cmovb  %edx,%edi
ffffffffc01010bc:	48 89 f2             	mov    %rsi,%rdx
ffffffffc01010bf:	48 c1 ea 02          	shr    $0x2,%rdx
ffffffffc01010c3:	8d 47 fe             	lea    -0x2(%rdi),%eax
ffffffffc01010c6:	48 83 fe 04          	cmp    $0x4,%rsi
ffffffffc01010ca:	48 0f 42 d6          	cmovb  %rsi,%rdx
ffffffffc01010ce:	0f 42 c7             	cmovb  %edi,%eax
ffffffffc01010d1:	31 c9                	xor    %ecx,%ecx
ffffffffc01010d3:	48 83 fa 02          	cmp    $0x2,%rdx
ffffffffc01010d7:	0f 93 c1             	setae  %cl
ffffffffc01010da:	48 d3 ea             	shr    %cl,%rdx
ffffffffc01010dd:	29 c8                	sub    %ecx,%eax
ffffffffc01010df:	29 d0                	sub    %edx,%eax
ffffffffc01010e1:	c3                   	ret

ffffffffc01010e2 <__clzti2>:
ffffffffc01010e2:	31 c9                	xor    %ecx,%ecx
ffffffffc01010e4:	48 85 f6             	test   %rsi,%rsi
ffffffffc01010e7:	b8 80 00 00 00       	mov    $0x80,%eax
ffffffffc01010ec:	6a 40                	push   $0x40
ffffffffc01010ee:	5a                   	pop    %rdx
ffffffffc01010ef:	48 0f 44 d0          	cmove  %rax,%rdx
ffffffffc01010f3:	48 0f 45 fe          	cmovne %rsi,%rdi
ffffffffc01010f7:	48 0f 45 f1          	cmovne %rcx,%rsi
ffffffffc01010fb:	48 89 f0             	mov    %rsi,%rax
ffffffffc01010fe:	48 0f a4 f8 20       	shld   $0x20,%rdi,%rax
ffffffffc0101103:	49 89 f0             	mov    %rsi,%r8
ffffffffc0101106:	49 c1 e8 20          	shr    $0x20,%r8
ffffffffc010110a:	4c 8d 4a e0          	lea    -0x20(%rdx),%r9
ffffffffc010110e:	49 89 c2             	mov    %rax,%r10
ffffffffc0101111:	4d 09 c2             	or     %r8,%r10
ffffffffc0101114:	4c 0f 44 ca          	cmove  %rdx,%r9
ffffffffc0101118:	48 0f 44 c7          	cmove  %rdi,%rax
ffffffffc010111c:	4c 0f 44 c6          	cmove  %rsi,%r8
ffffffffc0101120:	4c 89 c2             	mov    %r8,%rdx
ffffffffc0101123:	48 0f a4 c2 30       	shld   $0x30,%rax,%rdx
ffffffffc0101128:	4c 89 c6             	mov    %r8,%rsi
ffffffffc010112b:	48 c1 ee 10          	shr    $0x10,%rsi
ffffffffc010112f:	49 8d 79 f0          	lea    -0x10(%r9),%rdi
ffffffffc0101133:	48 3d 00 00 01 00    	cmp    $0x10000,%rax
ffffffffc0101139:	4d 89 c2             	mov    %r8,%r10
ffffffffc010113c:	49 83 da 00          	sbb    $0x0,%r10
ffffffffc0101140:	49 0f 42 f9          	cmovb  %r9,%rdi
ffffffffc0101144:	48 0f 42 d0          	cmovb  %rax,%rdx
ffffffffc0101148:	49 0f 42 f0          	cmovb  %r8,%rsi
ffffffffc010114c:	48 89 f0             	mov    %rsi,%rax
ffffffffc010114f:	48 0f a4 d0 38       	shld   $0x38,%rdx,%rax
ffffffffc0101154:	49 89 f0             	mov    %rsi,%r8
ffffffffc0101157:	49 c1 e8 08          	shr    $0x8,%r8
ffffffffc010115b:	4c 8d 4f f8          	lea    -0x8(%rdi),%r9
ffffffffc010115f:	48 81 fa 00 01 00 00 	cmp    $0x100,%rdx
ffffffffc0101166:	49 89 f2             	mov    %rsi,%r10
ffffffffc0101169:	49 83 da 00          	sbb    $0x0,%r10
ffffffffc010116d:	4c 0f 42 cf          	cmovb  %rdi,%r9
ffffffffc0101171:	48 0f 42 c2          	cmovb  %rdx,%rax
ffffffffc0101175:	4c 0f 42 c6          	cmovb  %rsi,%r8
ffffffffc0101179:	4c 89 c7             	mov    %r8,%rdi
ffffffffc010117c:	48 0f a4 c7 3c       	shld   $0x3c,%rax,%rdi
ffffffffc0101181:	4d 89 c2             	mov    %r8,%r10
ffffffffc0101184:	49 c1 ea 04          	shr    $0x4,%r10
ffffffffc0101188:	45 8d 59 fc          	lea    -0x4(%r9),%r11d
ffffffffc010118c:	48 83 f8 10          	cmp    $0x10,%rax
ffffffffc0101190:	4c 89 c2             	mov    %r8,%rdx
ffffffffc0101193:	48 83 da 00          	sbb    $0x0,%rdx
ffffffffc0101197:	4d 0f 42 d9          	cmovb  %r9,%r11
ffffffffc010119b:	48 0f 42 f8          	cmovb  %rax,%rdi
ffffffffc010119f:	4d 0f 42 d0          	cmovb  %r8,%r10
ffffffffc01011a3:	4c 89 d2             	mov    %r10,%rdx
ffffffffc01011a6:	48 0f a4 fa 3e       	shld   $0x3e,%rdi,%rdx
ffffffffc01011ab:	4c 89 d6             	mov    %r10,%rsi
ffffffffc01011ae:	48 c1 ee 02          	shr    $0x2,%rsi
ffffffffc01011b2:	41 8d 43 fe          	lea    -0x2(%r11),%eax
ffffffffc01011b6:	48 83 ff 04          	cmp    $0x4,%rdi
ffffffffc01011ba:	4d 89 d0             	mov    %r10,%r8
ffffffffc01011bd:	49 83 d8 00          	sbb    $0x0,%r8
ffffffffc01011c1:	48 0f 42 d7          	cmovb  %rdi,%rdx
ffffffffc01011c5:	49 0f 42 f2          	cmovb  %r10,%rsi
ffffffffc01011c9:	41 0f 42 c3          	cmovb  %r11d,%eax
ffffffffc01011cd:	6a 01                	push   $0x1
ffffffffc01011cf:	5f                   	pop    %rdi
ffffffffc01011d0:	48 39 d7             	cmp    %rdx,%rdi
ffffffffc01011d3:	48 19 f1             	sbb    %rsi,%rcx
ffffffffc01011d6:	0f 92 c1             	setb   %cl
ffffffffc01011d9:	0f b6 c9             	movzbl %cl,%ecx
ffffffffc01011dc:	48 d3 ea             	shr    %cl,%rdx
ffffffffc01011df:	29 c8                	sub    %ecx,%eax
ffffffffc01011e1:	f6 d1                	not    %cl
ffffffffc01011e3:	01 f6                	add    %esi,%esi
ffffffffc01011e5:	48 d3 e6             	shl    %cl,%rsi
ffffffffc01011e8:	09 d6                	or     %edx,%esi
ffffffffc01011ea:	29 f0                	sub    %esi,%eax
ffffffffc01011ec:	c3                   	ret

ffffffffc01011ed <__ctzsi2>:
ffffffffc01011ed:	85 ff                	test   %edi,%edi
ffffffffc01011ef:	74 5a                	je     ffffffffc010124b <__ctzsi2+0x5e>
ffffffffc01011f1:	89 f8                	mov    %edi,%eax
ffffffffc01011f3:	c1 e8 10             	shr    $0x10,%eax
ffffffffc01011f6:	31 c9                	xor    %ecx,%ecx
ffffffffc01011f8:	66 85 ff             	test   %di,%di
ffffffffc01011fb:	0f 94 c1             	sete   %cl
ffffffffc01011fe:	0f 45 c7             	cmovne %edi,%eax
ffffffffc0101201:	c1 e1 04             	shl    $0x4,%ecx
ffffffffc0101204:	8d 51 01             	lea    0x1(%rcx),%edx
ffffffffc0101207:	83 c9 09             	or     $0x9,%ecx
ffffffffc010120a:	89 c6                	mov    %eax,%esi
ffffffffc010120c:	c1 ee 08             	shr    $0x8,%esi
ffffffffc010120f:	84 c0                	test   %al,%al
ffffffffc0101211:	0f 45 ca             	cmovne %edx,%ecx
ffffffffc0101214:	0f 45 f0             	cmovne %eax,%esi
ffffffffc0101217:	8d 51 04             	lea    0x4(%rcx),%edx
ffffffffc010121a:	89 f7                	mov    %esi,%edi
ffffffffc010121c:	c1 ef 04             	shr    $0x4,%edi
ffffffffc010121f:	40 f6 c6 0f          	test   $0xf,%sil
ffffffffc0101223:	0f 45 d1             	cmovne %ecx,%edx
ffffffffc0101226:	0f 45 fe             	cmovne %esi,%edi
ffffffffc0101229:	8d 42 02             	lea    0x2(%rdx),%eax
ffffffffc010122c:	89 f9                	mov    %edi,%ecx
ffffffffc010122e:	c1 e9 02             	shr    $0x2,%ecx
ffffffffc0101231:	40 f6 c7 03          	test   $0x3,%dil
ffffffffc0101235:	0f 45 c2             	cmovne %edx,%eax
ffffffffc0101238:	0f 45 cf             	cmovne %edi,%ecx
ffffffffc010123b:	89 ca                	mov    %ecx,%edx
ffffffffc010123d:	f7 d2                	not    %edx
ffffffffc010123f:	83 e2 01             	and    $0x1,%edx
ffffffffc0101242:	01 d0                	add    %edx,%eax
ffffffffc0101244:	0f a3 d1             	bt     %edx,%ecx
ffffffffc0101247:	83 d8 00             	sbb    $0x0,%eax
ffffffffc010124a:	c3                   	ret
ffffffffc010124b:	6a 20                	push   $0x20
ffffffffc010124d:	58                   	pop    %rax
ffffffffc010124e:	c3                   	ret

ffffffffc010124f <__ctzdi2>:
ffffffffc010124f:	48 85 ff             	test   %rdi,%rdi
ffffffffc0101252:	74 7e                	je     ffffffffc01012d2 <__ctzdi2+0x83>
ffffffffc0101254:	48 89 f8             	mov    %rdi,%rax
ffffffffc0101257:	48 c1 e8 20          	shr    $0x20,%rax
ffffffffc010125b:	31 c9                	xor    %ecx,%ecx
ffffffffc010125d:	85 ff                	test   %edi,%edi
ffffffffc010125f:	0f 94 c1             	sete   %cl
ffffffffc0101262:	48 0f 45 c7          	cmovne %rdi,%rax
ffffffffc0101266:	c1 e1 05             	shl    $0x5,%ecx
ffffffffc0101269:	48 8d 51 01          	lea    0x1(%rcx),%rdx
ffffffffc010126d:	48 83 c9 11          	or     $0x11,%rcx
ffffffffc0101271:	48 89 c6             	mov    %rax,%rsi
ffffffffc0101274:	48 c1 ee 10          	shr    $0x10,%rsi
ffffffffc0101278:	66 85 c0             	test   %ax,%ax
ffffffffc010127b:	48 0f 45 ca          	cmovne %rdx,%rcx
ffffffffc010127f:	48 0f 45 f0          	cmovne %rax,%rsi
ffffffffc0101283:	8d 41 08             	lea    0x8(%rcx),%eax
ffffffffc0101286:	48 89 f2             	mov    %rsi,%rdx
ffffffffc0101289:	48 c1 ea 08          	shr    $0x8,%rdx
ffffffffc010128d:	40 84 f6             	test   %sil,%sil
ffffffffc0101290:	48 0f 45 c1          	cmovne %rcx,%rax
ffffffffc0101294:	48 0f 45 d6          	cmovne %rsi,%rdx
ffffffffc0101298:	89 c1                	mov    %eax,%ecx
ffffffffc010129a:	83 c9 04             	or     $0x4,%ecx
ffffffffc010129d:	48 89 d6             	mov    %rdx,%rsi
ffffffffc01012a0:	48 c1 ee 04          	shr    $0x4,%rsi
ffffffffc01012a4:	f6 c2 0f             	test   $0xf,%dl
ffffffffc01012a7:	48 0f 45 f2          	cmovne %rdx,%rsi
ffffffffc01012ab:	0f 45 c8             	cmovne %eax,%ecx
ffffffffc01012ae:	8d 41 02             	lea    0x2(%rcx),%eax
ffffffffc01012b1:	48 89 f2             	mov    %rsi,%rdx
ffffffffc01012b4:	48 c1 ea 02          	shr    $0x2,%rdx
ffffffffc01012b8:	40 f6 c6 03          	test   $0x3,%sil
ffffffffc01012bc:	0f 45 c1             	cmovne %ecx,%eax
ffffffffc01012bf:	0f 45 d6             	cmovne %esi,%edx
ffffffffc01012c2:	89 d1                	mov    %edx,%ecx
ffffffffc01012c4:	f7 d1                	not    %ecx
ffffffffc01012c6:	83 e1 01             	and    $0x1,%ecx
ffffffffc01012c9:	01 c8                	add    %ecx,%eax
ffffffffc01012cb:	0f a3 ca             	bt     %ecx,%edx
ffffffffc01012ce:	83 d8 00             	sbb    $0x0,%eax
ffffffffc01012d1:	c3                   	ret
ffffffffc01012d2:	6a 40                	push   $0x40
ffffffffc01012d4:	58                   	pop    %rax
ffffffffc01012d5:	c3                   	ret

ffffffffc01012d6 <__ctzti2>:
ffffffffc01012d6:	48 89 f8             	mov    %rdi,%rax
ffffffffc01012d9:	48 09 f0             	or     %rsi,%rax
ffffffffc01012dc:	0f 84 b5 00 00 00    	je     ffffffffc0101397 <__ctzti2+0xc1>
ffffffffc01012e2:	48 85 ff             	test   %rdi,%rdi
ffffffffc01012e5:	6a 41                	push   $0x41
ffffffffc01012e7:	58                   	pop    %rax
ffffffffc01012e8:	6a 01                	push   $0x1
ffffffffc01012ea:	59                   	pop    %rcx
ffffffffc01012eb:	48 0f 44 c8          	cmove  %rax,%rcx
ffffffffc01012ef:	48 89 f0             	mov    %rsi,%rax
ffffffffc01012f2:	48 0f 44 c7          	cmove  %rdi,%rax
ffffffffc01012f6:	48 0f 44 fe          	cmove  %rsi,%rdi
ffffffffc01012fa:	48 8d 51 20          	lea    0x20(%rcx),%rdx
ffffffffc01012fe:	48 89 c6             	mov    %rax,%rsi
ffffffffc0101301:	48 0f a4 fe 20       	shld   $0x20,%rdi,%rsi
ffffffffc0101306:	49 89 c0             	mov    %rax,%r8
ffffffffc0101309:	49 c1 e8 20          	shr    $0x20,%r8
ffffffffc010130d:	85 ff                	test   %edi,%edi
ffffffffc010130f:	48 0f 45 d1          	cmovne %rcx,%rdx
ffffffffc0101313:	4c 0f 45 c0          	cmovne %rax,%r8
ffffffffc0101317:	48 0f 45 f7          	cmovne %rdi,%rsi
ffffffffc010131b:	4c 89 c0             	mov    %r8,%rax
ffffffffc010131e:	48 0f a4 f0 30       	shld   $0x30,%rsi,%rax
ffffffffc0101323:	48 8d 4a 10          	lea    0x10(%rdx),%rcx
ffffffffc0101327:	4c 89 c7             	mov    %r8,%rdi
ffffffffc010132a:	48 c1 ef 10          	shr    $0x10,%rdi
ffffffffc010132e:	66 85 f6             	test   %si,%si
ffffffffc0101331:	48 0f 45 ca          	cmovne %rdx,%rcx
ffffffffc0101335:	49 0f 45 f8          	cmovne %r8,%rdi
ffffffffc0101339:	48 0f 45 c6          	cmovne %rsi,%rax
ffffffffc010133d:	48 8d 51 08          	lea    0x8(%rcx),%rdx
ffffffffc0101341:	48 89 fe             	mov    %rdi,%rsi
ffffffffc0101344:	48 0f a4 c6 38       	shld   $0x38,%rax,%rsi
ffffffffc0101349:	41 89 f8             	mov    %edi,%r8d
ffffffffc010134c:	41 c1 e8 08          	shr    $0x8,%r8d
ffffffffc0101350:	84 c0                	test   %al,%al
ffffffffc0101352:	48 0f 45 d1          	cmovne %rcx,%rdx
ffffffffc0101356:	4c 0f 45 c7          	cmovne %rdi,%r8
ffffffffc010135a:	48 0f 45 f0          	cmovne %rax,%rsi
ffffffffc010135e:	8d 4a 04             	lea    0x4(%rdx),%ecx
ffffffffc0101361:	49 0f a4 f0 3c       	shld   $0x3c,%rsi,%r8
ffffffffc0101366:	40 f6 c6 0f          	test   $0xf,%sil
ffffffffc010136a:	48 0f 45 ca          	cmovne %rdx,%rcx
ffffffffc010136e:	4c 0f 45 c6          	cmovne %rsi,%r8
ffffffffc0101372:	8d 41 02             	lea    0x2(%rcx),%eax
ffffffffc0101375:	4c 89 c2             	mov    %r8,%rdx
ffffffffc0101378:	48 c1 ea 02          	shr    $0x2,%rdx
ffffffffc010137c:	41 f6 c0 03          	test   $0x3,%r8b
ffffffffc0101380:	49 0f 45 d0          	cmovne %r8,%rdx
ffffffffc0101384:	89 d6                	mov    %edx,%esi
ffffffffc0101386:	f7 d6                	not    %esi
ffffffffc0101388:	0f 45 c1             	cmovne %ecx,%eax
ffffffffc010138b:	83 e6 01             	and    $0x1,%esi
ffffffffc010138e:	01 f0                	add    %esi,%eax
ffffffffc0101390:	0f a3 f2             	bt     %esi,%edx
ffffffffc0101393:	83 d8 00             	sbb    $0x0,%eax
ffffffffc0101396:	c3                   	ret
ffffffffc0101397:	b8 80 00 00 00       	mov    $0x80,%eax
ffffffffc010139c:	c3                   	ret

ffffffffc010139d <__ffssi2>:
ffffffffc010139d:	85 ff                	test   %edi,%edi
ffffffffc010139f:	74 5c                	je     ffffffffc01013fd <__ffssi2+0x60>
ffffffffc01013a1:	89 f8                	mov    %edi,%eax
ffffffffc01013a3:	c1 e8 10             	shr    $0x10,%eax
ffffffffc01013a6:	31 c9                	xor    %ecx,%ecx
ffffffffc01013a8:	66 85 ff             	test   %di,%di
ffffffffc01013ab:	0f 94 c1             	sete   %cl
ffffffffc01013ae:	0f 45 c7             	cmovne %edi,%eax
ffffffffc01013b1:	c1 e1 04             	shl    $0x4,%ecx
ffffffffc01013b4:	8d 51 01             	lea    0x1(%rcx),%edx
ffffffffc01013b7:	83 c9 09             	or     $0x9,%ecx
ffffffffc01013ba:	89 c6                	mov    %eax,%esi
ffffffffc01013bc:	c1 ee 08             	shr    $0x8,%esi
ffffffffc01013bf:	84 c0                	test   %al,%al
ffffffffc01013c1:	0f 45 ca             	cmovne %edx,%ecx
ffffffffc01013c4:	0f 45 f0             	cmovne %eax,%esi
ffffffffc01013c7:	8d 51 04             	lea    0x4(%rcx),%edx
ffffffffc01013ca:	89 f7                	mov    %esi,%edi
ffffffffc01013cc:	c1 ef 04             	shr    $0x4,%edi
ffffffffc01013cf:	40 f6 c6 0f          	test   $0xf,%sil
ffffffffc01013d3:	0f 45 d1             	cmovne %ecx,%edx
ffffffffc01013d6:	0f 45 fe             	cmovne %esi,%edi
ffffffffc01013d9:	8d 42 02             	lea    0x2(%rdx),%eax
ffffffffc01013dc:	89 f9                	mov    %edi,%ecx
ffffffffc01013de:	c1 e9 02             	shr    $0x2,%ecx
ffffffffc01013e1:	40 f6 c7 03          	test   $0x3,%dil
ffffffffc01013e5:	0f 45 c2             	cmovne %edx,%eax
ffffffffc01013e8:	0f 45 cf             	cmovne %edi,%ecx
ffffffffc01013eb:	89 ca                	mov    %ecx,%edx
ffffffffc01013ed:	f7 d2                	not    %edx
ffffffffc01013ef:	83 e2 01             	and    $0x1,%edx
ffffffffc01013f2:	89 ce                	mov    %ecx,%esi
ffffffffc01013f4:	83 ce fe             	or     $0xfffffffe,%esi
ffffffffc01013f7:	0f a3 d1             	bt     %edx,%ecx
ffffffffc01013fa:	19 f0                	sbb    %esi,%eax
ffffffffc01013fc:	c3                   	ret
ffffffffc01013fd:	31 c0                	xor    %eax,%eax
ffffffffc01013ff:	c3                   	ret

ffffffffc0101400 <__ffsdi2>:
ffffffffc0101400:	48 85 ff             	test   %rdi,%rdi
ffffffffc0101403:	0f 84 80 00 00 00    	je     ffffffffc0101489 <__ffsdi2+0x89>
ffffffffc0101409:	48 89 f8             	mov    %rdi,%rax
ffffffffc010140c:	48 c1 e8 20          	shr    $0x20,%rax
ffffffffc0101410:	31 c9                	xor    %ecx,%ecx
ffffffffc0101412:	85 ff                	test   %edi,%edi
ffffffffc0101414:	0f 94 c1             	sete   %cl
ffffffffc0101417:	48 0f 45 c7          	cmovne %rdi,%rax
ffffffffc010141b:	c1 e1 05             	shl    $0x5,%ecx
ffffffffc010141e:	48 8d 51 01          	lea    0x1(%rcx),%rdx
ffffffffc0101422:	48 83 c9 11          	or     $0x11,%rcx
ffffffffc0101426:	48 89 c6             	mov    %rax,%rsi
ffffffffc0101429:	48 c1 ee 10          	shr    $0x10,%rsi
ffffffffc010142d:	66 85 c0             	test   %ax,%ax
ffffffffc0101430:	48 0f 45 ca          	cmovne %rdx,%rcx
ffffffffc0101434:	48 0f 45 f0          	cmovne %rax,%rsi
ffffffffc0101438:	8d 41 08             	lea    0x8(%rcx),%eax
ffffffffc010143b:	48 89 f2             	mov    %rsi,%rdx
ffffffffc010143e:	48 c1 ea 08          	shr    $0x8,%rdx
ffffffffc0101442:	40 84 f6             	test   %sil,%sil
ffffffffc0101445:	48 0f 45 c1          	cmovne %rcx,%rax
ffffffffc0101449:	48 0f 45 d6          	cmovne %rsi,%rdx
ffffffffc010144d:	89 c1                	mov    %eax,%ecx
ffffffffc010144f:	83 c9 04             	or     $0x4,%ecx
ffffffffc0101452:	48 89 d6             	mov    %rdx,%rsi
ffffffffc0101455:	48 c1 ee 04          	shr    $0x4,%rsi
ffffffffc0101459:	f6 c2 0f             	test   $0xf,%dl
ffffffffc010145c:	48 0f 45 f2          	cmovne %rdx,%rsi
ffffffffc0101460:	0f 45 c8             	cmovne %eax,%ecx
ffffffffc0101463:	8d 41 02             	lea    0x2(%rcx),%eax
ffffffffc0101466:	48 89 f2             	mov    %rsi,%rdx
ffffffffc0101469:	48 c1 ea 02          	shr    $0x2,%rdx
ffffffffc010146d:	40 f6 c6 03          	test   $0x3,%sil
ffffffffc0101471:	0f 45 c1             	cmovne %ecx,%eax
ffffffffc0101474:	0f 45 d6             	cmovne %esi,%edx
ffffffffc0101477:	89 d1                	mov    %edx,%ecx
ffffffffc0101479:	f7 d1                	not    %ecx
ffffffffc010147b:	83 e1 01             	and    $0x1,%ecx
ffffffffc010147e:	01 c8                	add    %ecx,%eax
ffffffffc0101480:	0f a3 ca             	bt     %ecx,%edx
ffffffffc0101483:	83 d8 00             	sbb    $0x0,%eax
ffffffffc0101486:	ff c0                	inc    %eax
ffffffffc0101488:	c3                   	ret
ffffffffc0101489:	31 c0                	xor    %eax,%eax
ffffffffc010148b:	c3                   	ret

ffffffffc010148c <__ffsti2>:
ffffffffc010148c:	48 89 f8             	mov    %rdi,%rax
ffffffffc010148f:	48 09 f0             	or     %rsi,%rax
ffffffffc0101492:	0f 84 b7 00 00 00    	je     ffffffffc010154f <__ffsti2+0xc3>
ffffffffc0101498:	48 85 ff             	test   %rdi,%rdi
ffffffffc010149b:	6a 41                	push   $0x41
ffffffffc010149d:	58                   	pop    %rax
ffffffffc010149e:	6a 01                	push   $0x1
ffffffffc01014a0:	59                   	pop    %rcx
ffffffffc01014a1:	48 0f 44 c8          	cmove  %rax,%rcx
ffffffffc01014a5:	48 89 f0             	mov    %rsi,%rax
ffffffffc01014a8:	48 0f 44 c7          	cmove  %rdi,%rax
ffffffffc01014ac:	48 0f 44 fe          	cmove  %rsi,%rdi
ffffffffc01014b0:	48 8d 51 20          	lea    0x20(%rcx),%rdx
ffffffffc01014b4:	48 89 c6             	mov    %rax,%rsi
ffffffffc01014b7:	48 0f a4 fe 20       	shld   $0x20,%rdi,%rsi
ffffffffc01014bc:	49 89 c0             	mov    %rax,%r8
ffffffffc01014bf:	49 c1 e8 20          	shr    $0x20,%r8
ffffffffc01014c3:	85 ff                	test   %edi,%edi
ffffffffc01014c5:	48 0f 45 d1          	cmovne %rcx,%rdx
ffffffffc01014c9:	4c 0f 45 c0          	cmovne %rax,%r8
ffffffffc01014cd:	48 0f 45 f7          	cmovne %rdi,%rsi
ffffffffc01014d1:	4c 89 c0             	mov    %r8,%rax
ffffffffc01014d4:	48 0f a4 f0 30       	shld   $0x30,%rsi,%rax
ffffffffc01014d9:	48 8d 4a 10          	lea    0x10(%rdx),%rcx
ffffffffc01014dd:	4c 89 c7             	mov    %r8,%rdi
ffffffffc01014e0:	48 c1 ef 10          	shr    $0x10,%rdi
ffffffffc01014e4:	66 85 f6             	test   %si,%si
ffffffffc01014e7:	48 0f 45 ca          	cmovne %rdx,%rcx
ffffffffc01014eb:	49 0f 45 f8          	cmovne %r8,%rdi
ffffffffc01014ef:	48 0f 45 c6          	cmovne %rsi,%rax
ffffffffc01014f3:	48 8d 51 08          	lea    0x8(%rcx),%rdx
ffffffffc01014f7:	48 89 fe             	mov    %rdi,%rsi
ffffffffc01014fa:	48 0f a4 c6 38       	shld   $0x38,%rax,%rsi
ffffffffc01014ff:	41 89 f8             	mov    %edi,%r8d
ffffffffc0101502:	41 c1 e8 08          	shr    $0x8,%r8d
ffffffffc0101506:	84 c0                	test   %al,%al
ffffffffc0101508:	48 0f 45 d1          	cmovne %rcx,%rdx
ffffffffc010150c:	4c 0f 45 c7          	cmovne %rdi,%r8
ffffffffc0101510:	48 0f 45 f0          	cmovne %rax,%rsi
ffffffffc0101514:	8d 4a 04             	lea    0x4(%rdx),%ecx
ffffffffc0101517:	49 0f a4 f0 3c       	shld   $0x3c,%rsi,%r8
ffffffffc010151c:	40 f6 c6 0f          	test   $0xf,%sil
ffffffffc0101520:	48 0f 45 ca          	cmovne %rdx,%rcx
ffffffffc0101524:	4c 0f 45 c6          	cmovne %rsi,%r8
ffffffffc0101528:	8d 41 02             	lea    0x2(%rcx),%eax
ffffffffc010152b:	4c 89 c2             	mov    %r8,%rdx
ffffffffc010152e:	48 c1 ea 02          	shr    $0x2,%rdx
ffffffffc0101532:	41 f6 c0 03          	test   $0x3,%r8b
ffffffffc0101536:	49 0f 45 d0          	cmovne %r8,%rdx
ffffffffc010153a:	89 d6                	mov    %edx,%esi
ffffffffc010153c:	f7 d6                	not    %esi
ffffffffc010153e:	0f 45 c1             	cmovne %ecx,%eax
ffffffffc0101541:	83 e6 01             	and    $0x1,%esi
ffffffffc0101544:	01 f0                	add    %esi,%eax
ffffffffc0101546:	0f a3 f2             	bt     %esi,%edx
ffffffffc0101549:	83 d8 00             	sbb    $0x0,%eax
ffffffffc010154c:	ff c0                	inc    %eax
ffffffffc010154e:	c3                   	ret
ffffffffc010154f:	31 c0                	xor    %eax,%eax
ffffffffc0101551:	c3                   	ret

ffffffffc0101552 <__paritysi2>:
ffffffffc0101552:	89 f8                	mov    %edi,%eax
ffffffffc0101554:	c1 e8 10             	shr    $0x10,%eax
ffffffffc0101557:	31 f8                	xor    %edi,%eax
ffffffffc0101559:	89 c1                	mov    %eax,%ecx
ffffffffc010155b:	c1 e9 08             	shr    $0x8,%ecx
ffffffffc010155e:	31 c1                	xor    %eax,%ecx
ffffffffc0101560:	89 ca                	mov    %ecx,%edx
ffffffffc0101562:	c1 ea 04             	shr    $0x4,%edx
ffffffffc0101565:	31 ca                	xor    %ecx,%edx
ffffffffc0101567:	83 e2 0f             	and    $0xf,%edx
ffffffffc010156a:	b9 96 69 00 00       	mov    $0x6996,%ecx
ffffffffc010156f:	31 c0                	xor    %eax,%eax
ffffffffc0101571:	0f a3 d1             	bt     %edx,%ecx
ffffffffc0101574:	0f 92 c0             	setb   %al
ffffffffc0101577:	c3                   	ret

ffffffffc0101578 <__paritydi2>:
ffffffffc0101578:	48 89 f8             	mov    %rdi,%rax
ffffffffc010157b:	48 c1 e8 20          	shr    $0x20,%rax
ffffffffc010157f:	48 31 f8             	xor    %rdi,%rax
ffffffffc0101582:	48 89 c1             	mov    %rax,%rcx
ffffffffc0101585:	48 c1 e9 10          	shr    $0x10,%rcx
ffffffffc0101589:	48 31 c1             	xor    %rax,%rcx
ffffffffc010158c:	48 89 c8             	mov    %rcx,%rax
ffffffffc010158f:	48 c1 e8 08          	shr    $0x8,%rax
ffffffffc0101593:	31 c8                	xor    %ecx,%eax
ffffffffc0101595:	89 c1                	mov    %eax,%ecx
ffffffffc0101597:	c1 e9 04             	shr    $0x4,%ecx
ffffffffc010159a:	31 c1                	xor    %eax,%ecx
ffffffffc010159c:	83 e1 0f             	and    $0xf,%ecx
ffffffffc010159f:	ba 96 69 00 00       	mov    $0x6996,%edx
ffffffffc01015a4:	31 c0                	xor    %eax,%eax
ffffffffc01015a6:	0f a3 ca             	bt     %ecx,%edx
ffffffffc01015a9:	0f 92 c0             	setb   %al
ffffffffc01015ac:	c3                   	ret

ffffffffc01015ad <__parityti2>:
ffffffffc01015ad:	48 31 f7             	xor    %rsi,%rdi
ffffffffc01015b0:	48 89 f0             	mov    %rsi,%rax
ffffffffc01015b3:	48 c1 e8 20          	shr    $0x20,%rax
ffffffffc01015b7:	31 f0                	xor    %esi,%eax
ffffffffc01015b9:	48 0f a4 fe 20       	shld   $0x20,%rdi,%rsi
ffffffffc01015be:	48 31 fe             	xor    %rdi,%rsi
ffffffffc01015c1:	48 0f a4 f0 30       	shld   $0x30,%rsi,%rax
ffffffffc01015c6:	48 31 f0             	xor    %rsi,%rax
ffffffffc01015c9:	48 89 c1             	mov    %rax,%rcx
ffffffffc01015cc:	48 c1 e9 08          	shr    $0x8,%rcx
ffffffffc01015d0:	31 c1                	xor    %eax,%ecx
ffffffffc01015d2:	89 ca                	mov    %ecx,%edx
ffffffffc01015d4:	c1 ea 04             	shr    $0x4,%edx
ffffffffc01015d7:	31 ca                	xor    %ecx,%edx
ffffffffc01015d9:	83 e2 0f             	and    $0xf,%edx
ffffffffc01015dc:	b9 96 69 00 00       	mov    $0x6996,%ecx
ffffffffc01015e1:	31 c0                	xor    %eax,%eax
ffffffffc01015e3:	0f a3 d1             	bt     %edx,%ecx
ffffffffc01015e6:	0f 92 c0             	setb   %al
ffffffffc01015e9:	c3                   	ret

ffffffffc01015ea <__popcountsi2>:
ffffffffc01015ea:	89 f8                	mov    %edi,%eax
ffffffffc01015ec:	d1 e8                	shr    $1,%eax
ffffffffc01015ee:	25 55 55 55 55       	and    $0x55555555,%eax
ffffffffc01015f3:	29 c7                	sub    %eax,%edi
ffffffffc01015f5:	b8 33 33 33 33       	mov    $0x33333333,%eax
ffffffffc01015fa:	89 f9                	mov    %edi,%ecx
ffffffffc01015fc:	21 c1                	and    %eax,%ecx
ffffffffc01015fe:	c1 ef 02             	shr    $0x2,%edi
ffffffffc0101601:	21 c7                	and    %eax,%edi
ffffffffc0101603:	01 cf                	add    %ecx,%edi
ffffffffc0101605:	89 f8                	mov    %edi,%eax
ffffffffc0101607:	c1 e8 04             	shr    $0x4,%eax
ffffffffc010160a:	01 f8                	add    %edi,%eax
ffffffffc010160c:	25 0f 0f 0f 0f       	and    $0xf0f0f0f,%eax
ffffffffc0101611:	69 c0 01 01 01 01    	imul   $0x1010101,%eax,%eax
ffffffffc0101617:	c1 e8 18             	shr    $0x18,%eax
ffffffffc010161a:	c3                   	ret

ffffffffc010161b <__popcountdi2>:
ffffffffc010161b:	48 89 f8             	mov    %rdi,%rax
ffffffffc010161e:	48 d1 e8             	shr    $1,%rax
ffffffffc0101621:	48 b9 55 55 55 55 55 	movabs $0x5555555555555555,%rcx
ffffffffc0101628:	55 55 55 
ffffffffc010162b:	48 21 c1             	and    %rax,%rcx
ffffffffc010162e:	48 29 cf             	sub    %rcx,%rdi
ffffffffc0101631:	48 b8 33 33 33 33 33 	movabs $0x3333333333333333,%rax
ffffffffc0101638:	33 33 33 
ffffffffc010163b:	48 89 f9             	mov    %rdi,%rcx
ffffffffc010163e:	48 21 c1             	and    %rax,%rcx
ffffffffc0101641:	48 c1 ef 02          	shr    $0x2,%rdi
ffffffffc0101645:	48 21 f8             	and    %rdi,%rax
ffffffffc0101648:	48 01 c8             	add    %rcx,%rax
ffffffffc010164b:	48 89 c1             	mov    %rax,%rcx
ffffffffc010164e:	48 c1 e9 04          	shr    $0x4,%rcx
ffffffffc0101652:	48 01 c1             	add    %rax,%rcx
ffffffffc0101655:	48 ba 0f 0f 0f 0f 0f 	movabs $0xf0f0f0f0f0f0f0f,%rdx
ffffffffc010165c:	0f 0f 0f 
ffffffffc010165f:	48 21 ca             	and    %rcx,%rdx
ffffffffc0101662:	48 b8 01 01 01 01 01 	movabs $0x101010101010101,%rax
ffffffffc0101669:	01 01 01 
ffffffffc010166c:	48 0f af c2          	imul   %rdx,%rax
ffffffffc0101670:	48 c1 e8 38          	shr    $0x38,%rax
ffffffffc0101674:	c3                   	ret

ffffffffc0101675 <__popcountti2>:
ffffffffc0101675:	48 89 f0             	mov    %rsi,%rax
ffffffffc0101678:	48 d1 e8             	shr    $1,%rax
ffffffffc010167b:	48 ba 55 55 55 55 55 	movabs $0x5555555555555555,%rdx
ffffffffc0101682:	55 55 55 
ffffffffc0101685:	48 21 d0             	and    %rdx,%rax
ffffffffc0101688:	48 29 c6             	sub    %rax,%rsi
ffffffffc010168b:	48 b8 33 33 33 33 33 	movabs $0x3333333333333333,%rax
ffffffffc0101692:	33 33 33 
ffffffffc0101695:	49 89 f0             	mov    %rsi,%r8
ffffffffc0101698:	49 21 c0             	and    %rax,%r8
ffffffffc010169b:	48 c1 ee 02          	shr    $0x2,%rsi
ffffffffc010169f:	48 21 c6             	and    %rax,%rsi
ffffffffc01016a2:	49 01 f0             	add    %rsi,%r8
ffffffffc01016a5:	4c 89 c1             	mov    %r8,%rcx
ffffffffc01016a8:	48 c1 e9 04          	shr    $0x4,%rcx
ffffffffc01016ac:	4c 01 c1             	add    %r8,%rcx
ffffffffc01016af:	48 be 0f 0f 0f 0f 0f 	movabs $0xf0f0f0f0f0f0f0f,%rsi
ffffffffc01016b6:	0f 0f 0f 
ffffffffc01016b9:	48 21 f1             	and    %rsi,%rcx
ffffffffc01016bc:	49 b8 01 01 01 01 01 	movabs $0x101010101010101,%r8
ffffffffc01016c3:	01 01 01 
ffffffffc01016c6:	49 0f af c8          	imul   %r8,%rcx
ffffffffc01016ca:	48 c1 e9 38          	shr    $0x38,%rcx
ffffffffc01016ce:	49 89 f9             	mov    %rdi,%r9
ffffffffc01016d1:	49 d1 e9             	shr    $1,%r9
ffffffffc01016d4:	49 21 d1             	and    %rdx,%r9
ffffffffc01016d7:	4c 29 cf             	sub    %r9,%rdi
ffffffffc01016da:	48 89 fa             	mov    %rdi,%rdx
ffffffffc01016dd:	48 21 c2             	and    %rax,%rdx
ffffffffc01016e0:	48 c1 ef 02          	shr    $0x2,%rdi
ffffffffc01016e4:	48 21 c7             	and    %rax,%rdi
ffffffffc01016e7:	48 01 d7             	add    %rdx,%rdi
ffffffffc01016ea:	48 89 f8             	mov    %rdi,%rax
ffffffffc01016ed:	48 c1 e8 04          	shr    $0x4,%rax
ffffffffc01016f1:	48 01 f8             	add    %rdi,%rax
ffffffffc01016f4:	48 21 f0             	and    %rsi,%rax
ffffffffc01016f7:	49 0f af c0          	imul   %r8,%rax
ffffffffc01016fb:	48 c1 e8 38          	shr    $0x38,%rax
ffffffffc01016ff:	01 c8                	add    %ecx,%eax
ffffffffc0101701:	c3                   	ret

ffffffffc0101702 <__bitreversesi2>:
ffffffffc0101702:	0f cf                	bswap  %edi
ffffffffc0101704:	89 f8                	mov    %edi,%eax
ffffffffc0101706:	c1 e8 04             	shr    $0x4,%eax
ffffffffc0101709:	b9 0f 0f 0f 0f       	mov    $0xf0f0f0f,%ecx
ffffffffc010170e:	21 c8                	and    %ecx,%eax
ffffffffc0101710:	21 cf                	and    %ecx,%edi
ffffffffc0101712:	c1 e7 04             	shl    $0x4,%edi
ffffffffc0101715:	09 c7                	or     %eax,%edi
ffffffffc0101717:	b8 33 33 33 33       	mov    $0x33333333,%eax
ffffffffc010171c:	89 f9                	mov    %edi,%ecx
ffffffffc010171e:	21 c1                	and    %eax,%ecx
ffffffffc0101720:	c1 ef 02             	shr    $0x2,%edi
ffffffffc0101723:	21 c7                	and    %eax,%edi
ffffffffc0101725:	8d 04 8f             	lea    (%rdi,%rcx,4),%eax
ffffffffc0101728:	b9 55 55 55 55       	mov    $0x55555555,%ecx
ffffffffc010172d:	89 c2                	mov    %eax,%edx
ffffffffc010172f:	21 ca                	and    %ecx,%edx
ffffffffc0101731:	d1 e8                	shr    $1,%eax
ffffffffc0101733:	21 c8                	and    %ecx,%eax
ffffffffc0101735:	8d 04 50             	lea    (%rax,%rdx,2),%eax
ffffffffc0101738:	c3                   	ret

ffffffffc0101739 <__bitreversedi2>:
ffffffffc0101739:	48 0f cf             	bswap  %rdi
ffffffffc010173c:	48 89 f8             	mov    %rdi,%rax
ffffffffc010173f:	48 c1 e8 04          	shr    $0x4,%rax
ffffffffc0101743:	48 b9 0f 0f 0f 0f 0f 	movabs $0xf0f0f0f0f0f0f0f,%rcx
ffffffffc010174a:	0f 0f 0f 
ffffffffc010174d:	48 21 c8             	and    %rcx,%rax
ffffffffc0101750:	48 21 cf             	and    %rcx,%rdi
ffffffffc0101753:	48 c1 e7 04          	shl    $0x4,%rdi
ffffffffc0101757:	48 09 c7             	or     %rax,%rdi
ffffffffc010175a:	48 b8 33 33 33 33 33 	movabs $0x3333333333333333,%rax
ffffffffc0101761:	33 33 33 
ffffffffc0101764:	48 89 f9             	mov    %rdi,%rcx
ffffffffc0101767:	48 21 c1             	and    %rax,%rcx
ffffffffc010176a:	48 c1 ef 02          	shr    $0x2,%rdi
ffffffffc010176e:	48 21 c7             	and    %rax,%rdi
ffffffffc0101771:	48 8d 04 8f          	lea    (%rdi,%rcx,4),%rax
ffffffffc0101775:	48 b9 55 55 55 55 55 	movabs $0x5555555555555555,%rcx
ffffffffc010177c:	55 55 55 
ffffffffc010177f:	48 89 c2             	mov    %rax,%rdx
ffffffffc0101782:	48 21 ca             	and    %rcx,%rdx
ffffffffc0101785:	48 d1 e8             	shr    $1,%rax
ffffffffc0101788:	48 21 c8             	and    %rcx,%rax
ffffffffc010178b:	48 8d 04 50          	lea    (%rax,%rdx,2),%rax
ffffffffc010178f:	c3                   	ret

ffffffffc0101790 <__bitreverseti2>:
ffffffffc0101790:	48 0f ce             	bswap  %rsi
ffffffffc0101793:	48 89 f0             	mov    %rsi,%rax
ffffffffc0101796:	48 c1 e8 04          	shr    $0x4,%rax
ffffffffc010179a:	48 ba 0f 0f 0f 0f 0f 	movabs $0xf0f0f0f0f0f0f0f,%rdx
ffffffffc01017a1:	0f 0f 0f 
ffffffffc01017a4:	48 21 d0             	and    %rdx,%rax
ffffffffc01017a7:	48 21 d6             	and    %rdx,%rsi
ffffffffc01017aa:	48 c1 e6 04          	shl    $0x4,%rsi
ffffffffc01017ae:	48 09 c6             	or     %rax,%rsi
ffffffffc01017b1:	48 b9 33 33 33 33 33 	movabs $0x3333333333333333,%rcx
ffffffffc01017b8:	33 33 33 
ffffffffc01017bb:	48 89 f0             	mov    %rsi,%rax
ffffffffc01017be:	48 21 c8             	and    %rcx,%rax
ffffffffc01017c1:	48 c1 ee 02          	shr    $0x2,%rsi
ffffffffc01017c5:	48 21 ce             	and    %rcx,%rsi
ffffffffc01017c8:	48 8d 04 86          	lea    (%rsi,%rax,4),%rax
ffffffffc01017cc:	48 be 55 55 55 55 55 	movabs $0x5555555555555555,%rsi
ffffffffc01017d3:	55 55 55 
ffffffffc01017d6:	49 89 c0             	mov    %rax,%r8
ffffffffc01017d9:	49 21 f0             	and    %rsi,%r8
ffffffffc01017dc:	48 d1 e8             	shr    $1,%rax
ffffffffc01017df:	48 21 f0             	and    %rsi,%rax
ffffffffc01017e2:	4a 8d 04 40          	lea    (%rax,%r8,2),%rax
ffffffffc01017e6:	48 0f cf             	bswap  %rdi
ffffffffc01017e9:	49 89 f8             	mov    %rdi,%r8
ffffffffc01017ec:	49 c1 e8 04          	shr    $0x4,%r8
ffffffffc01017f0:	49 21 d0             	and    %rdx,%r8
ffffffffc01017f3:	48 21 d7             	and    %rdx,%rdi
ffffffffc01017f6:	48 c1 e7 04          	shl    $0x4,%rdi
ffffffffc01017fa:	4c 09 c7             	or     %r8,%rdi
ffffffffc01017fd:	48 89 fa             	mov    %rdi,%rdx
ffffffffc0101800:	48 21 ca             	and    %rcx,%rdx
ffffffffc0101803:	48 c1 ef 02          	shr    $0x2,%rdi
ffffffffc0101807:	48 21 cf             	and    %rcx,%rdi
ffffffffc010180a:	48 8d 0c 97          	lea    (%rdi,%rdx,4),%rcx
ffffffffc010180e:	48 89 ca             	mov    %rcx,%rdx
ffffffffc0101811:	48 21 f2             	and    %rsi,%rdx
ffffffffc0101814:	48 d1 e9             	shr    $1,%rcx
ffffffffc0101817:	48 21 f1             	and    %rsi,%rcx
ffffffffc010181a:	48 8d 14 51          	lea    (%rcx,%rdx,2),%rdx
ffffffffc010181e:	c3                   	ret

ffffffffc010181f <__bswapsi2>:
ffffffffc010181f:	89 f8                	mov    %edi,%eax
ffffffffc0101821:	0f c8                	bswap  %eax
ffffffffc0101823:	c3                   	ret

ffffffffc0101824 <__bswapdi2>:
ffffffffc0101824:	48 89 f8             	mov    %rdi,%rax
ffffffffc0101827:	48 0f c8             	bswap  %rax
ffffffffc010182a:	c3                   	ret

ffffffffc010182b <__bswapti2>:
ffffffffc010182b:	48 89 f0             	mov    %rsi,%rax
ffffffffc010182e:	48 0f c8             	bswap  %rax
ffffffffc0101831:	48 0f cf             	bswap  %rdi
ffffffffc0101834:	48 89 fa             	mov    %rdi,%rdx
ffffffffc0101837:	c3                   	ret

ffffffffc0101838 <__cmpsi2>:
ffffffffc0101838:	39 f7                	cmp    %esi,%edi
ffffffffc010183a:	0f 9c c0             	setl   %al
ffffffffc010183d:	0f 9f c1             	setg   %cl
ffffffffc0101840:	28 c1                	sub    %al,%cl
ffffffffc0101842:	0f be c1             	movsbl %cl,%eax
ffffffffc0101845:	ff c0                	inc    %eax
ffffffffc0101847:	c3                   	ret

ffffffffc0101848 <__cmpdi2>:
ffffffffc0101848:	48 39 f7             	cmp    %rsi,%rdi
ffffffffc010184b:	0f 9c c0             	setl   %al
ffffffffc010184e:	0f 9f c1             	setg   %cl
ffffffffc0101851:	28 c1                	sub    %al,%cl
ffffffffc0101853:	0f be c1             	movsbl %cl,%eax
ffffffffc0101856:	ff c0                	inc    %eax
ffffffffc0101858:	c3                   	ret

ffffffffc0101859 <__cmpti2>:
ffffffffc0101859:	48 39 d7             	cmp    %rdx,%rdi
ffffffffc010185c:	48 89 f0             	mov    %rsi,%rax
ffffffffc010185f:	48 19 c8             	sbb    %rcx,%rax
ffffffffc0101862:	0f 9c c0             	setl   %al
ffffffffc0101865:	48 39 fa             	cmp    %rdi,%rdx
ffffffffc0101868:	48 19 f1             	sbb    %rsi,%rcx
ffffffffc010186b:	0f 9c c1             	setl   %cl
ffffffffc010186e:	28 c1                	sub    %al,%cl
ffffffffc0101870:	0f be c1             	movsbl %cl,%eax
ffffffffc0101873:	ff c0                	inc    %eax
ffffffffc0101875:	c3                   	ret

ffffffffc0101876 <__ucmpsi2>:
ffffffffc0101876:	39 f7                	cmp    %esi,%edi
ffffffffc0101878:	0f 97 c0             	seta   %al
ffffffffc010187b:	1c 00                	sbb    $0x0,%al
ffffffffc010187d:	0f be c0             	movsbl %al,%eax
ffffffffc0101880:	ff c0                	inc    %eax
ffffffffc0101882:	c3                   	ret

ffffffffc0101883 <__ucmpdi2>:
ffffffffc0101883:	48 39 f7             	cmp    %rsi,%rdi
ffffffffc0101886:	0f 97 c0             	seta   %al
ffffffffc0101889:	1c 00                	sbb    $0x0,%al
ffffffffc010188b:	0f be c0             	movsbl %al,%eax
ffffffffc010188e:	ff c0                	inc    %eax
ffffffffc0101890:	c3                   	ret

ffffffffc0101891 <__ucmpti2>:
ffffffffc0101891:	48 39 fa             	cmp    %rdi,%rdx
ffffffffc0101894:	48 89 c8             	mov    %rcx,%rax
ffffffffc0101897:	48 19 f0             	sbb    %rsi,%rax
ffffffffc010189a:	0f 92 c0             	setb   %al
ffffffffc010189d:	48 39 d7             	cmp    %rdx,%rdi
ffffffffc01018a0:	48 19 ce             	sbb    %rcx,%rsi
ffffffffc01018a3:	1c 00                	sbb    $0x0,%al
ffffffffc01018a5:	0f be c0             	movsbl %al,%eax
ffffffffc01018a8:	ff c0                	inc    %eax
ffffffffc01018aa:	c3                   	ret

ffffffffc01018ab <__ashlsi3>:
ffffffffc01018ab:	89 f1                	mov    %esi,%ecx
ffffffffc01018ad:	89 f8                	mov    %edi,%eax
ffffffffc01018af:	83 fe 0f             	cmp    $0xf,%esi
ffffffffc01018b2:	7e 09                	jle    ffffffffc01018bd <__ashlsi3+0x12>
ffffffffc01018b4:	80 e1 0f             	and    $0xf,%cl
ffffffffc01018b7:	d3 e0                	shl    %cl,%eax
ffffffffc01018b9:	31 c9                	xor    %ecx,%ecx
ffffffffc01018bb:	eb 1e                	jmp    ffffffffc01018db <__ashlsi3+0x30>
ffffffffc01018bd:	85 c9                	test   %ecx,%ecx
ffffffffc01018bf:	74 1f                	je     ffffffffc01018e0 <__ashlsi3+0x35>
ffffffffc01018c1:	89 c2                	mov    %eax,%edx
ffffffffc01018c3:	c1 ea 10             	shr    $0x10,%edx
ffffffffc01018c6:	89 c6                	mov    %eax,%esi
ffffffffc01018c8:	d3 e6                	shl    %cl,%esi
ffffffffc01018ca:	d3 e2                	shl    %cl,%edx
ffffffffc01018cc:	0f b7 c0             	movzwl %ax,%eax
ffffffffc01018cf:	f6 d9                	neg    %cl
ffffffffc01018d1:	80 e1 0f             	and    $0xf,%cl
ffffffffc01018d4:	d3 e8                	shr    %cl,%eax
ffffffffc01018d6:	09 d0                	or     %edx,%eax
ffffffffc01018d8:	0f b7 ce             	movzwl %si,%ecx
ffffffffc01018db:	c1 e0 10             	shl    $0x10,%eax
ffffffffc01018de:	09 c8                	or     %ecx,%eax
ffffffffc01018e0:	c3                   	ret

ffffffffc01018e1 <__ashrsi3>:
ffffffffc01018e1:	89 f9                	mov    %edi,%ecx
ffffffffc01018e3:	c1 e9 10             	shr    $0x10,%ecx
ffffffffc01018e6:	83 fe 0f             	cmp    $0xf,%esi
ffffffffc01018e9:	7e 12                	jle    ffffffffc01018fd <__ashrsi3+0x1c>
ffffffffc01018eb:	0f bf c1             	movswl %cx,%eax
ffffffffc01018ee:	89 c2                	mov    %eax,%edx
ffffffffc01018f0:	c1 ea 0f             	shr    $0xf,%edx
ffffffffc01018f3:	40 80 e6 0f          	and    $0xf,%sil
ffffffffc01018f7:	89 f1                	mov    %esi,%ecx
ffffffffc01018f9:	d3 f8                	sar    %cl,%eax
ffffffffc01018fb:	eb 1f                	jmp    ffffffffc010191c <__ashrsi3+0x3b>
ffffffffc01018fd:	89 f8                	mov    %edi,%eax
ffffffffc01018ff:	85 f6                	test   %esi,%esi
ffffffffc0101901:	74 21                	je     ffffffffc0101924 <__ashrsi3+0x43>
ffffffffc0101903:	0f bf f9             	movswl %cx,%edi
ffffffffc0101906:	89 fa                	mov    %edi,%edx
ffffffffc0101908:	89 f1                	mov    %esi,%ecx
ffffffffc010190a:	d3 fa                	sar    %cl,%edx
ffffffffc010190c:	f6 d9                	neg    %cl
ffffffffc010190e:	80 e1 0f             	and    $0xf,%cl
ffffffffc0101911:	d3 e7                	shl    %cl,%edi
ffffffffc0101913:	0f b7 c0             	movzwl %ax,%eax
ffffffffc0101916:	89 f1                	mov    %esi,%ecx
ffffffffc0101918:	d3 e8                	shr    %cl,%eax
ffffffffc010191a:	09 f8                	or     %edi,%eax
ffffffffc010191c:	c1 e2 10             	shl    $0x10,%edx
ffffffffc010191f:	0f b7 c0             	movzwl %ax,%eax
ffffffffc0101922:	09 d0                	or     %edx,%eax
ffffffffc0101924:	c3                   	ret

ffffffffc0101925 <__lshrsi3>:
ffffffffc0101925:	89 f9                	mov    %edi,%ecx
ffffffffc0101927:	c1 e9 10             	shr    $0x10,%ecx
ffffffffc010192a:	83 fe 0f             	cmp    $0xf,%esi
ffffffffc010192d:	7e 0f                	jle    ffffffffc010193e <__lshrsi3+0x19>
ffffffffc010192f:	0f b7 c1             	movzwl %cx,%eax
ffffffffc0101932:	40 80 e6 0f          	and    $0xf,%sil
ffffffffc0101936:	89 f1                	mov    %esi,%ecx
ffffffffc0101938:	d3 e8                	shr    %cl,%eax
ffffffffc010193a:	31 d2                	xor    %edx,%edx
ffffffffc010193c:	eb 22                	jmp    ffffffffc0101960 <__lshrsi3+0x3b>
ffffffffc010193e:	89 f8                	mov    %edi,%eax
ffffffffc0101940:	85 f6                	test   %esi,%esi
ffffffffc0101942:	74 21                	je     ffffffffc0101965 <__lshrsi3+0x40>
ffffffffc0101944:	0f b7 f9             	movzwl %cx,%edi
ffffffffc0101947:	89 fa                	mov    %edi,%edx
ffffffffc0101949:	89 f1                	mov    %esi,%ecx
ffffffffc010194b:	d3 ea                	shr    %cl,%edx
ffffffffc010194d:	f6 d9                	neg    %cl
ffffffffc010194f:	80 e1 0f             	and    $0xf,%cl
ffffffffc0101952:	d3 e7                	shl    %cl,%edi
ffffffffc0101954:	0f b7 c0             	movzwl %ax,%eax
ffffffffc0101957:	89 f1                	mov    %esi,%ecx
ffffffffc0101959:	d3 e8                	shr    %cl,%eax
ffffffffc010195b:	09 f8                	or     %edi,%eax
ffffffffc010195d:	c1 e2 10             	shl    $0x10,%edx
ffffffffc0101960:	0f b7 c0             	movzwl %ax,%eax
ffffffffc0101963:	09 d0                	or     %edx,%eax
ffffffffc0101965:	c3                   	ret

ffffffffc0101966 <__ashlti3>:
ffffffffc0101966:	89 d1                	mov    %edx,%ecx
ffffffffc0101968:	83 fa 3f             	cmp    $0x3f,%edx
ffffffffc010196b:	7e 07                	jle    ffffffffc0101974 <__ashlti3+0xe>
ffffffffc010196d:	48 d3 e7             	shl    %cl,%rdi
ffffffffc0101970:	31 c0                	xor    %eax,%eax
ffffffffc0101972:	eb 1d                	jmp    ffffffffc0101991 <__ashlti3+0x2b>
ffffffffc0101974:	85 c9                	test   %ecx,%ecx
ffffffffc0101976:	74 13                	je     ffffffffc010198b <__ashlti3+0x25>
ffffffffc0101978:	48 89 f8             	mov    %rdi,%rax
ffffffffc010197b:	48 d3 e0             	shl    %cl,%rax
ffffffffc010197e:	48 d3 e6             	shl    %cl,%rsi
ffffffffc0101981:	f6 d9                	neg    %cl
ffffffffc0101983:	48 d3 ef             	shr    %cl,%rdi
ffffffffc0101986:	48 09 f7             	or     %rsi,%rdi
ffffffffc0101989:	eb 06                	jmp    ffffffffc0101991 <__ashlti3+0x2b>
ffffffffc010198b:	48 89 f8             	mov    %rdi,%rax
ffffffffc010198e:	48 89 f7             	mov    %rsi,%rdi
ffffffffc0101991:	48 89 fa             	mov    %rdi,%rdx
ffffffffc0101994:	c3                   	ret

ffffffffc0101995 <__ashrti3>:
ffffffffc0101995:	41 89 d0             	mov    %edx,%r8d
ffffffffc0101998:	48 89 f0             	mov    %rsi,%rax
ffffffffc010199b:	83 fa 3f             	cmp    $0x3f,%edx
ffffffffc010199e:	7e 0e                	jle    ffffffffc01019ae <__ashrti3+0x19>
ffffffffc01019a0:	48 89 c2             	mov    %rax,%rdx
ffffffffc01019a3:	48 c1 fa 3f          	sar    $0x3f,%rdx
ffffffffc01019a7:	44 89 c1             	mov    %r8d,%ecx
ffffffffc01019aa:	48 d3 f8             	sar    %cl,%rax
ffffffffc01019ad:	c3                   	ret
ffffffffc01019ae:	45 85 c0             	test   %r8d,%r8d
ffffffffc01019b1:	74 18                	je     ffffffffc01019cb <__ashrti3+0x36>
ffffffffc01019b3:	48 89 c2             	mov    %rax,%rdx
ffffffffc01019b6:	44 89 c1             	mov    %r8d,%ecx
ffffffffc01019b9:	48 d3 fa             	sar    %cl,%rdx
ffffffffc01019bc:	f6 d9                	neg    %cl
ffffffffc01019be:	48 d3 e0             	shl    %cl,%rax
ffffffffc01019c1:	44 89 c1             	mov    %r8d,%ecx
ffffffffc01019c4:	48 d3 ef             	shr    %cl,%rdi
ffffffffc01019c7:	48 09 f8             	or     %rdi,%rax
ffffffffc01019ca:	c3                   	ret
ffffffffc01019cb:	48 89 c2             	mov    %rax,%rdx
ffffffffc01019ce:	48 89 f8             	mov    %rdi,%rax
ffffffffc01019d1:	c3                   	ret

ffffffffc01019d2 <__lshrti3>:
ffffffffc01019d2:	41 89 d0             	mov    %edx,%r8d
ffffffffc01019d5:	48 89 f0             	mov    %rsi,%rax
ffffffffc01019d8:	83 fa 3f             	cmp    $0x3f,%edx
ffffffffc01019db:	7e 09                	jle    ffffffffc01019e6 <__lshrti3+0x14>
ffffffffc01019dd:	44 89 c1             	mov    %r8d,%ecx
ffffffffc01019e0:	48 d3 e8             	shr    %cl,%rax
ffffffffc01019e3:	31 d2                	xor    %edx,%edx
ffffffffc01019e5:	c3                   	ret
ffffffffc01019e6:	45 85 c0             	test   %r8d,%r8d
ffffffffc01019e9:	74 18                	je     ffffffffc0101a03 <__lshrti3+0x31>
ffffffffc01019eb:	48 89 c2             	mov    %rax,%rdx
ffffffffc01019ee:	44 89 c1             	mov    %r8d,%ecx
ffffffffc01019f1:	48 d3 ea             	shr    %cl,%rdx
ffffffffc01019f4:	f6 d9                	neg    %cl
ffffffffc01019f6:	48 d3 e0             	shl    %cl,%rax
ffffffffc01019f9:	44 89 c1             	mov    %r8d,%ecx
ffffffffc01019fc:	48 d3 ef             	shr    %cl,%rdi
ffffffffc01019ff:	48 09 f8             	or     %rdi,%rax
ffffffffc0101a02:	c3                   	ret
ffffffffc0101a03:	48 89 c2             	mov    %rax,%rdx
ffffffffc0101a06:	48 89 f8             	mov    %rdi,%rax
ffffffffc0101a09:	c3                   	ret

ffffffffc0101a0a <__ashldi3>:
ffffffffc0101a0a:	89 f1                	mov    %esi,%ecx
ffffffffc0101a0c:	48 89 f8             	mov    %rdi,%rax
ffffffffc0101a0f:	83 fe 1f             	cmp    $0x1f,%esi
ffffffffc0101a12:	7e 06                	jle    ffffffffc0101a1a <__ashldi3+0x10>
ffffffffc0101a14:	d3 e0                	shl    %cl,%eax
ffffffffc0101a16:	31 d2                	xor    %edx,%edx
ffffffffc0101a18:	eb 17                	jmp    ffffffffc0101a31 <__ashldi3+0x27>
ffffffffc0101a1a:	85 c9                	test   %ecx,%ecx
ffffffffc0101a1c:	74 1a                	je     ffffffffc0101a38 <__ashldi3+0x2e>
ffffffffc0101a1e:	48 89 c6             	mov    %rax,%rsi
ffffffffc0101a21:	48 c1 ee 20          	shr    $0x20,%rsi
ffffffffc0101a25:	89 c2                	mov    %eax,%edx
ffffffffc0101a27:	d3 e2                	shl    %cl,%edx
ffffffffc0101a29:	d3 e6                	shl    %cl,%esi
ffffffffc0101a2b:	f6 d9                	neg    %cl
ffffffffc0101a2d:	d3 e8                	shr    %cl,%eax
ffffffffc0101a2f:	09 f0                	or     %esi,%eax
ffffffffc0101a31:	48 c1 e0 20          	shl    $0x20,%rax
ffffffffc0101a35:	48 09 d0             	or     %rdx,%rax
ffffffffc0101a38:	c3                   	ret

ffffffffc0101a39 <__ashrdi3>:
ffffffffc0101a39:	48 89 fa             	mov    %rdi,%rdx
ffffffffc0101a3c:	48 c1 ea 20          	shr    $0x20,%rdx
ffffffffc0101a40:	83 fe 1f             	cmp    $0x1f,%esi
ffffffffc0101a43:	7e 0b                	jle    ffffffffc0101a50 <__ashrdi3+0x17>
ffffffffc0101a45:	89 d7                	mov    %edx,%edi
ffffffffc0101a47:	c1 ff 1f             	sar    $0x1f,%edi
ffffffffc0101a4a:	89 f1                	mov    %esi,%ecx
ffffffffc0101a4c:	d3 fa                	sar    %cl,%edx
ffffffffc0101a4e:	eb 19                	jmp    ffffffffc0101a69 <__ashrdi3+0x30>
ffffffffc0101a50:	48 89 f8             	mov    %rdi,%rax
ffffffffc0101a53:	85 f6                	test   %esi,%esi
ffffffffc0101a55:	74 1b                	je     ffffffffc0101a72 <__ashrdi3+0x39>
ffffffffc0101a57:	89 d7                	mov    %edx,%edi
ffffffffc0101a59:	89 f1                	mov    %esi,%ecx
ffffffffc0101a5b:	d3 ff                	sar    %cl,%edi
ffffffffc0101a5d:	f6 d9                	neg    %cl
ffffffffc0101a5f:	d3 e2                	shl    %cl,%edx
ffffffffc0101a61:	89 f1                	mov    %esi,%ecx
ffffffffc0101a63:	d3 e8                	shr    %cl,%eax
ffffffffc0101a65:	09 d0                	or     %edx,%eax
ffffffffc0101a67:	89 c2                	mov    %eax,%edx
ffffffffc0101a69:	48 c1 e7 20          	shl    $0x20,%rdi
ffffffffc0101a6d:	89 d0                	mov    %edx,%eax
ffffffffc0101a6f:	48 09 f8             	or     %rdi,%rax
ffffffffc0101a72:	c3                   	ret

ffffffffc0101a73 <__lshrdi3>:
ffffffffc0101a73:	48 89 fa             	mov    %rdi,%rdx
ffffffffc0101a76:	48 c1 ea 20          	shr    $0x20,%rdx
ffffffffc0101a7a:	83 fe 1f             	cmp    $0x1f,%esi
ffffffffc0101a7d:	7e 08                	jle    ffffffffc0101a87 <__lshrdi3+0x14>
ffffffffc0101a7f:	89 f1                	mov    %esi,%ecx
ffffffffc0101a81:	d3 ea                	shr    %cl,%edx
ffffffffc0101a83:	31 ff                	xor    %edi,%edi
ffffffffc0101a85:	eb 1d                	jmp    ffffffffc0101aa4 <__lshrdi3+0x31>
ffffffffc0101a87:	48 89 f8             	mov    %rdi,%rax
ffffffffc0101a8a:	85 f6                	test   %esi,%esi
ffffffffc0101a8c:	74 1b                	je     ffffffffc0101aa9 <__lshrdi3+0x36>
ffffffffc0101a8e:	89 d7                	mov    %edx,%edi
ffffffffc0101a90:	89 f1                	mov    %esi,%ecx
ffffffffc0101a92:	d3 ef                	shr    %cl,%edi
ffffffffc0101a94:	f6 d9                	neg    %cl
ffffffffc0101a96:	d3 e2                	shl    %cl,%edx
ffffffffc0101a98:	89 f1                	mov    %esi,%ecx
ffffffffc0101a9a:	d3 e8                	shr    %cl,%eax
ffffffffc0101a9c:	09 d0                	or     %edx,%eax
ffffffffc0101a9e:	48 c1 e7 20          	shl    $0x20,%rdi
ffffffffc0101aa2:	89 c2                	mov    %eax,%edx
ffffffffc0101aa4:	89 d0                	mov    %edx,%eax
ffffffffc0101aa6:	48 09 f8             	or     %rdi,%rax
ffffffffc0101aa9:	c3                   	ret

ffffffffc0101aaa <__negsi2>:
ffffffffc0101aaa:	89 f8                	mov    %edi,%eax
ffffffffc0101aac:	f7 d8                	neg    %eax
ffffffffc0101aae:	c3                   	ret

ffffffffc0101aaf <__negdi2>:
ffffffffc0101aaf:	48 89 f8             	mov    %rdi,%rax
ffffffffc0101ab2:	48 f7 d8             	neg    %rax
ffffffffc0101ab5:	c3                   	ret

ffffffffc0101ab6 <__negti2>:
ffffffffc0101ab6:	48 89 f8             	mov    %rdi,%rax
ffffffffc0101ab9:	31 d2                	xor    %edx,%edx
ffffffffc0101abb:	48 f7 d8             	neg    %rax
ffffffffc0101abe:	48 19 f2             	sbb    %rsi,%rdx
ffffffffc0101ac1:	c3                   	ret

ffffffffc0101ac2 <__divmodti4>:
ffffffffc0101ac2:	41 57                	push   %r15
ffffffffc0101ac4:	41 56                	push   %r14
ffffffffc0101ac6:	41 55                	push   %r13
ffffffffc0101ac8:	41 54                	push   %r12
ffffffffc0101aca:	53                   	push   %rbx
ffffffffc0101acb:	4c 89 c3             	mov    %r8,%rbx
ffffffffc0101ace:	49 89 cf             	mov    %rcx,%r15
ffffffffc0101ad1:	49 89 d4             	mov    %rdx,%r12
ffffffffc0101ad4:	49 89 f6             	mov    %rsi,%r14
ffffffffc0101ad7:	49 89 fd             	mov    %rdi,%r13
ffffffffc0101ada:	e8 34 00 00 00       	call   ffffffffc0101b13 <__divti3>
ffffffffc0101adf:	48 89 c1             	mov    %rax,%rcx
ffffffffc0101ae2:	48 89 d6             	mov    %rdx,%rsi
ffffffffc0101ae5:	4c 0f af f8          	imul   %rax,%r15
ffffffffc0101ae9:	49 f7 e4             	mul    %r12
ffffffffc0101aec:	4c 01 fa             	add    %r15,%rdx
ffffffffc0101aef:	4c 0f af e6          	imul   %rsi,%r12
ffffffffc0101af3:	49 01 d4             	add    %rdx,%r12
ffffffffc0101af6:	49 29 c5             	sub    %rax,%r13
ffffffffc0101af9:	4d 19 e6             	sbb    %r12,%r14
ffffffffc0101afc:	4c 89 2b             	mov    %r13,(%rbx)
ffffffffc0101aff:	4c 89 73 08          	mov    %r14,0x8(%rbx)
ffffffffc0101b03:	48 89 c8             	mov    %rcx,%rax
ffffffffc0101b06:	48 89 f2             	mov    %rsi,%rdx
ffffffffc0101b09:	5b                   	pop    %rbx
ffffffffc0101b0a:	41 5c                	pop    %r12
ffffffffc0101b0c:	41 5d                	pop    %r13
ffffffffc0101b0e:	41 5e                	pop    %r14
ffffffffc0101b10:	41 5f                	pop    %r15
ffffffffc0101b12:	c3                   	ret

ffffffffc0101b13 <__divti3>:
ffffffffc0101b13:	41 56                	push   %r14
ffffffffc0101b15:	53                   	push   %rbx
ffffffffc0101b16:	50                   	push   %rax
ffffffffc0101b17:	49 89 f6             	mov    %rsi,%r14
ffffffffc0101b1a:	49 c1 fe 3f          	sar    $0x3f,%r14
ffffffffc0101b1e:	48 89 cb             	mov    %rcx,%rbx
ffffffffc0101b21:	48 c1 fb 3f          	sar    $0x3f,%rbx
ffffffffc0101b25:	4c 31 f6             	xor    %r14,%rsi
ffffffffc0101b28:	4c 31 f7             	xor    %r14,%rdi
ffffffffc0101b2b:	4c 29 f7             	sub    %r14,%rdi
ffffffffc0101b2e:	4c 19 f6             	sbb    %r14,%rsi
ffffffffc0101b31:	48 31 d9             	xor    %rbx,%rcx
ffffffffc0101b34:	48 31 da             	xor    %rbx,%rdx
ffffffffc0101b37:	48 29 da             	sub    %rbx,%rdx
ffffffffc0101b3a:	48 19 d9             	sbb    %rbx,%rcx
ffffffffc0101b3d:	45 31 c0             	xor    %r8d,%r8d
ffffffffc0101b40:	e8 c6 02 00 00       	call   ffffffffc0101e0b <compiler_rt.udivmod.udivmod__anon_2458>
ffffffffc0101b45:	4c 31 f3             	xor    %r14,%rbx
ffffffffc0101b48:	48 31 da             	xor    %rbx,%rdx
ffffffffc0101b4b:	48 31 d8             	xor    %rbx,%rax
ffffffffc0101b4e:	48 29 d8             	sub    %rbx,%rax
ffffffffc0101b51:	48 19 da             	sbb    %rbx,%rdx
ffffffffc0101b54:	48 83 c4 08          	add    $0x8,%rsp
ffffffffc0101b58:	5b                   	pop    %rbx
ffffffffc0101b59:	41 5e                	pop    %r14
ffffffffc0101b5b:	c3                   	ret

ffffffffc0101b5c <__udivmoddi4>:
ffffffffc0101b5c:	41 56                	push   %r14
ffffffffc0101b5e:	53                   	push   %rbx
ffffffffc0101b5f:	50                   	push   %rax
ffffffffc0101b60:	48 89 d3             	mov    %rdx,%rbx
ffffffffc0101b63:	49 89 f0             	mov    %rsi,%r8
ffffffffc0101b66:	48 89 fe             	mov    %rdi,%rsi
ffffffffc0101b69:	49 39 f8             	cmp    %rdi,%r8
ffffffffc0101b6c:	76 10                	jbe    ffffffffc0101b7e <__udivmoddi4+0x22>
ffffffffc0101b6e:	48 85 db             	test   %rbx,%rbx
ffffffffc0101b71:	74 03                	je     ffffffffc0101b76 <__udivmoddi4+0x1a>
ffffffffc0101b73:	48 89 33             	mov    %rsi,(%rbx)
ffffffffc0101b76:	45 31 f6             	xor    %r14d,%r14d
ffffffffc0101b79:	e9 ac 00 00 00       	jmp    ffffffffc0101c2a <__udivmoddi4+0xce>
ffffffffc0101b7e:	48 89 f0             	mov    %rsi,%rax
ffffffffc0101b81:	48 c1 e8 20          	shr    $0x20,%rax
ffffffffc0101b85:	4c 89 c2             	mov    %r8,%rdx
ffffffffc0101b88:	48 c1 ea 20          	shr    $0x20,%rdx
ffffffffc0101b8c:	75 1c                	jne    ffffffffc0101baa <__udivmoddi4+0x4e>
ffffffffc0101b8e:	83 64 24 04 00       	andl   $0x0,0x4(%rsp)
ffffffffc0101b93:	44 39 c0             	cmp    %r8d,%eax
ffffffffc0101b96:	73 68                	jae    ffffffffc0101c00 <__udivmoddi4+0xa4>
ffffffffc0101b98:	48 89 e1             	mov    %rsp,%rcx
ffffffffc0101b9b:	89 c7                	mov    %eax,%edi
ffffffffc0101b9d:	44 89 c2             	mov    %r8d,%edx
ffffffffc0101ba0:	e8 61 03 00 00       	call   ffffffffc0101f06 <compiler_rt.udivmod.divwide__anon_2480>
ffffffffc0101ba5:	45 31 f6             	xor    %r14d,%r14d
ffffffffc0101ba8:	eb 6f                	jmp    ffffffffc0101c19 <__udivmoddi4+0xbd>
ffffffffc0101baa:	6a 3f                	push   $0x3f
ffffffffc0101bac:	5f                   	pop    %rdi
ffffffffc0101bad:	89 f9                	mov    %edi,%ecx
ffffffffc0101baf:	0f bd ca             	bsr    %edx,%ecx
ffffffffc0101bb2:	83 f1 1f             	xor    $0x1f,%ecx
ffffffffc0101bb5:	0f bd f8             	bsr    %eax,%edi
ffffffffc0101bb8:	83 f7 1f             	xor    $0x1f,%edi
ffffffffc0101bbb:	40 28 f9             	sub    %dil,%cl
ffffffffc0101bbe:	49 d3 e0             	shl    %cl,%r8
ffffffffc0101bc1:	fe c1                	inc    %cl
ffffffffc0101bc3:	0f b6 c9             	movzbl %cl,%ecx
ffffffffc0101bc6:	83 e1 3f             	and    $0x3f,%ecx
ffffffffc0101bc9:	31 c0                	xor    %eax,%eax
ffffffffc0101bcb:	48 83 e9 01          	sub    $0x1,%rcx
ffffffffc0101bcf:	72 22                	jb     ffffffffc0101bf3 <__udivmoddi4+0x97>
ffffffffc0101bd1:	48 89 f2             	mov    %rsi,%rdx
ffffffffc0101bd4:	48 f7 d2             	not    %rdx
ffffffffc0101bd7:	4c 01 c2             	add    %r8,%rdx
ffffffffc0101bda:	48 89 d7             	mov    %rdx,%rdi
ffffffffc0101bdd:	48 c1 ef 3f          	shr    $0x3f,%rdi
ffffffffc0101be1:	8d 04 47             	lea    (%rdi,%rax,2),%eax
ffffffffc0101be4:	48 c1 fa 3f          	sar    $0x3f,%rdx
ffffffffc0101be8:	4c 21 c2             	and    %r8,%rdx
ffffffffc0101beb:	48 29 d6             	sub    %rdx,%rsi
ffffffffc0101bee:	49 d1 e8             	shr    $1,%r8
ffffffffc0101bf1:	eb d8                	jmp    ffffffffc0101bcb <__udivmoddi4+0x6f>
ffffffffc0101bf3:	48 85 db             	test   %rbx,%rbx
ffffffffc0101bf6:	74 03                	je     ffffffffc0101bfb <__udivmoddi4+0x9f>
ffffffffc0101bf8:	48 89 33             	mov    %rsi,(%rbx)
ffffffffc0101bfb:	41 89 c6             	mov    %eax,%r14d
ffffffffc0101bfe:	eb 2a                	jmp    ffffffffc0101c2a <__udivmoddi4+0xce>
ffffffffc0101c00:	31 d2                	xor    %edx,%edx
ffffffffc0101c02:	41 f7 f0             	div    %r8d
ffffffffc0101c05:	89 d7                	mov    %edx,%edi
ffffffffc0101c07:	41 89 c6             	mov    %eax,%r14d
ffffffffc0101c0a:	48 89 e1             	mov    %rsp,%rcx
ffffffffc0101c0d:	44 89 c2             	mov    %r8d,%edx
ffffffffc0101c10:	e8 f1 02 00 00       	call   ffffffffc0101f06 <compiler_rt.udivmod.divwide__anon_2480>
ffffffffc0101c15:	49 c1 e6 20          	shl    $0x20,%r14
ffffffffc0101c19:	48 85 db             	test   %rbx,%rbx
ffffffffc0101c1c:	74 07                	je     ffffffffc0101c25 <__udivmoddi4+0xc9>
ffffffffc0101c1e:	48 8b 0c 24          	mov    (%rsp),%rcx
ffffffffc0101c22:	48 89 0b             	mov    %rcx,(%rbx)
ffffffffc0101c25:	89 c0                	mov    %eax,%eax
ffffffffc0101c27:	49 09 c6             	or     %rax,%r14
ffffffffc0101c2a:	4c 89 f0             	mov    %r14,%rax
ffffffffc0101c2d:	48 83 c4 08          	add    $0x8,%rsp
ffffffffc0101c31:	5b                   	pop    %rbx
ffffffffc0101c32:	41 5e                	pop    %r14
ffffffffc0101c34:	c3                   	ret

ffffffffc0101c35 <__divmoddi4>:
ffffffffc0101c35:	41 57                	push   %r15
ffffffffc0101c37:	41 56                	push   %r14
ffffffffc0101c39:	53                   	push   %rbx
ffffffffc0101c3a:	48 89 d3             	mov    %rdx,%rbx
ffffffffc0101c3d:	49 89 f6             	mov    %rsi,%r14
ffffffffc0101c40:	49 89 ff             	mov    %rdi,%r15
ffffffffc0101c43:	e8 10 00 00 00       	call   ffffffffc0101c58 <__divdi3>
ffffffffc0101c48:	4c 0f af f0          	imul   %rax,%r14
ffffffffc0101c4c:	4d 29 f7             	sub    %r14,%r15
ffffffffc0101c4f:	4c 89 3b             	mov    %r15,(%rbx)
ffffffffc0101c52:	5b                   	pop    %rbx
ffffffffc0101c53:	41 5e                	pop    %r14
ffffffffc0101c55:	41 5f                	pop    %r15
ffffffffc0101c57:	c3                   	ret

ffffffffc0101c58 <__divdi3>:
ffffffffc0101c58:	53                   	push   %rbx
ffffffffc0101c59:	48 89 f3             	mov    %rsi,%rbx
ffffffffc0101c5c:	48 31 fb             	xor    %rdi,%rbx
ffffffffc0101c5f:	48 c1 fb 3f          	sar    $0x3f,%rbx
ffffffffc0101c63:	48 89 f8             	mov    %rdi,%rax
ffffffffc0101c66:	48 f7 d8             	neg    %rax
ffffffffc0101c69:	48 0f 49 f8          	cmovns %rax,%rdi
ffffffffc0101c6d:	48 89 f0             	mov    %rsi,%rax
ffffffffc0101c70:	48 f7 d8             	neg    %rax
ffffffffc0101c73:	48 0f 49 f0          	cmovns %rax,%rsi
ffffffffc0101c77:	31 d2                	xor    %edx,%edx
ffffffffc0101c79:	e8 de fe ff ff       	call   ffffffffc0101b5c <__udivmoddi4>
ffffffffc0101c7e:	48 31 d8             	xor    %rbx,%rax
ffffffffc0101c81:	48 29 d8             	sub    %rbx,%rax
ffffffffc0101c84:	5b                   	pop    %rbx
ffffffffc0101c85:	c3                   	ret

ffffffffc0101c86 <__divsi3>:
ffffffffc0101c86:	89 f1                	mov    %esi,%ecx
ffffffffc0101c88:	31 f9                	xor    %edi,%ecx
ffffffffc0101c8a:	c1 f9 1f             	sar    $0x1f,%ecx
ffffffffc0101c8d:	89 f8                	mov    %edi,%eax
ffffffffc0101c8f:	f7 d8                	neg    %eax
ffffffffc0101c91:	0f 48 c7             	cmovs  %edi,%eax
ffffffffc0101c94:	89 f7                	mov    %esi,%edi
ffffffffc0101c96:	f7 df                	neg    %edi
ffffffffc0101c98:	0f 48 fe             	cmovs  %esi,%edi
ffffffffc0101c9b:	31 d2                	xor    %edx,%edx
ffffffffc0101c9d:	f7 f7                	div    %edi
ffffffffc0101c9f:	31 c8                	xor    %ecx,%eax
ffffffffc0101ca1:	29 c8                	sub    %ecx,%eax
ffffffffc0101ca3:	c3                   	ret

ffffffffc0101ca4 <__udivsi3>:
ffffffffc0101ca4:	85 f6                	test   %esi,%esi
ffffffffc0101ca6:	0f 94 c0             	sete   %al
ffffffffc0101ca9:	85 ff                	test   %edi,%edi
ffffffffc0101cab:	0f 94 c1             	sete   %cl
ffffffffc0101cae:	08 c1                	or     %al,%cl
ffffffffc0101cb0:	31 c0                	xor    %eax,%eax
ffffffffc0101cb2:	80 f9 01             	cmp    $0x1,%cl
ffffffffc0101cb5:	74 63                	je     ffffffffc0101d1a <__udivsi3+0x76>
ffffffffc0101cb7:	6a 3f                	push   $0x3f
ffffffffc0101cb9:	41 59                	pop    %r9
ffffffffc0101cbb:	45 89 c8             	mov    %r9d,%r8d
ffffffffc0101cbe:	44 0f bd c6          	bsr    %esi,%r8d
ffffffffc0101cc2:	41 83 f0 1f          	xor    $0x1f,%r8d
ffffffffc0101cc6:	44 0f bd cf          	bsr    %edi,%r9d
ffffffffc0101cca:	41 83 f1 1f          	xor    $0x1f,%r9d
ffffffffc0101cce:	44 89 c2             	mov    %r8d,%edx
ffffffffc0101cd1:	44 29 ca             	sub    %r9d,%edx
ffffffffc0101cd4:	83 fa 1f             	cmp    $0x1f,%edx
ffffffffc0101cd7:	77 41                	ja     ffffffffc0101d1a <__udivsi3+0x76>
ffffffffc0101cd9:	75 03                	jne    ffffffffc0101cde <__udivsi3+0x3a>
ffffffffc0101cdb:	89 f8                	mov    %edi,%eax
ffffffffc0101cdd:	c3                   	ret
ffffffffc0101cde:	89 d1                	mov    %edx,%ecx
ffffffffc0101ce0:	f6 d1                	not    %cl
ffffffffc0101ce2:	89 f8                	mov    %edi,%eax
ffffffffc0101ce4:	d3 e0                	shl    %cl,%eax
ffffffffc0101ce6:	fe c2                	inc    %dl
ffffffffc0101ce8:	89 d1                	mov    %edx,%ecx
ffffffffc0101cea:	d3 ef                	shr    %cl,%edi
ffffffffc0101cec:	41 f7 d0             	not    %r8d
ffffffffc0101cef:	45 01 c8             	add    %r9d,%r8d
ffffffffc0101cf2:	31 c9                	xor    %ecx,%ecx
ffffffffc0101cf4:	45 85 c0             	test   %r8d,%r8d
ffffffffc0101cf7:	74 1e                	je     ffffffffc0101d17 <__udivsi3+0x73>
ffffffffc0101cf9:	0f a4 c7 01          	shld   $0x1,%eax,%edi
ffffffffc0101cfd:	8d 04 41             	lea    (%rcx,%rax,2),%eax
ffffffffc0101d00:	89 fa                	mov    %edi,%edx
ffffffffc0101d02:	f7 d2                	not    %edx
ffffffffc0101d04:	01 f2                	add    %esi,%edx
ffffffffc0101d06:	89 d1                	mov    %edx,%ecx
ffffffffc0101d08:	c1 e9 1f             	shr    $0x1f,%ecx
ffffffffc0101d0b:	c1 fa 1f             	sar    $0x1f,%edx
ffffffffc0101d0e:	21 f2                	and    %esi,%edx
ffffffffc0101d10:	29 d7                	sub    %edx,%edi
ffffffffc0101d12:	41 ff c0             	inc    %r8d
ffffffffc0101d15:	eb dd                	jmp    ffffffffc0101cf4 <__udivsi3+0x50>
ffffffffc0101d17:	8d 04 41             	lea    (%rcx,%rax,2),%eax
ffffffffc0101d1a:	c3                   	ret

ffffffffc0101d1b <__udivdi3>:
ffffffffc0101d1b:	31 d2                	xor    %edx,%edx
ffffffffc0101d1d:	e9 3a fe ff ff       	jmp    ffffffffc0101b5c <__udivmoddi4>

ffffffffc0101d22 <__modsi3>:
ffffffffc0101d22:	89 f1                	mov    %esi,%ecx
ffffffffc0101d24:	31 f9                	xor    %edi,%ecx
ffffffffc0101d26:	c1 f9 1f             	sar    $0x1f,%ecx
ffffffffc0101d29:	89 f8                	mov    %edi,%eax
ffffffffc0101d2b:	f7 d8                	neg    %eax
ffffffffc0101d2d:	0f 48 c7             	cmovs  %edi,%eax
ffffffffc0101d30:	41 89 f0             	mov    %esi,%r8d
ffffffffc0101d33:	41 f7 d8             	neg    %r8d
ffffffffc0101d36:	44 0f 48 c6          	cmovs  %esi,%r8d
ffffffffc0101d3a:	31 d2                	xor    %edx,%edx
ffffffffc0101d3c:	41 f7 f0             	div    %r8d
ffffffffc0101d3f:	31 c8                	xor    %ecx,%eax
ffffffffc0101d41:	29 c1                	sub    %eax,%ecx
ffffffffc0101d43:	0f af ce             	imul   %esi,%ecx
ffffffffc0101d46:	01 f9                	add    %edi,%ecx
ffffffffc0101d48:	89 c8                	mov    %ecx,%eax
ffffffffc0101d4a:	c3                   	ret

ffffffffc0101d4b <__moddi3>:
ffffffffc0101d4b:	41 56                	push   %r14
ffffffffc0101d4d:	53                   	push   %rbx
ffffffffc0101d4e:	50                   	push   %rax
ffffffffc0101d4f:	49 89 fe             	mov    %rdi,%r14
ffffffffc0101d52:	49 c1 fe 3f          	sar    $0x3f,%r14
ffffffffc0101d56:	48 89 f8             	mov    %rdi,%rax
ffffffffc0101d59:	48 f7 d8             	neg    %rax
ffffffffc0101d5c:	48 0f 49 f8          	cmovns %rax,%rdi
ffffffffc0101d60:	48 89 f0             	mov    %rsi,%rax
ffffffffc0101d63:	48 f7 d8             	neg    %rax
ffffffffc0101d66:	48 0f 49 f0          	cmovns %rax,%rsi
ffffffffc0101d6a:	48 89 e3             	mov    %rsp,%rbx
ffffffffc0101d6d:	48 89 da             	mov    %rbx,%rdx
ffffffffc0101d70:	e8 e7 fd ff ff       	call   ffffffffc0101b5c <__udivmoddi4>
ffffffffc0101d75:	48 8b 03             	mov    (%rbx),%rax
ffffffffc0101d78:	4c 31 f0             	xor    %r14,%rax
ffffffffc0101d7b:	4c 29 f0             	sub    %r14,%rax
ffffffffc0101d7e:	48 83 c4 08          	add    $0x8,%rsp
ffffffffc0101d82:	5b                   	pop    %rbx
ffffffffc0101d83:	41 5e                	pop    %r14
ffffffffc0101d85:	c3                   	ret

ffffffffc0101d86 <__umodsi3>:
ffffffffc0101d86:	55                   	push   %rbp
ffffffffc0101d87:	53                   	push   %rbx
ffffffffc0101d88:	50                   	push   %rax
ffffffffc0101d89:	89 f3                	mov    %esi,%ebx
ffffffffc0101d8b:	89 fd                	mov    %edi,%ebp
ffffffffc0101d8d:	e8 12 ff ff ff       	call   ffffffffc0101ca4 <__udivsi3>
ffffffffc0101d92:	0f af c3             	imul   %ebx,%eax
ffffffffc0101d95:	29 c5                	sub    %eax,%ebp
ffffffffc0101d97:	89 e8                	mov    %ebp,%eax
ffffffffc0101d99:	48 83 c4 08          	add    $0x8,%rsp
ffffffffc0101d9d:	5b                   	pop    %rbx
ffffffffc0101d9e:	5d                   	pop    %rbp
ffffffffc0101d9f:	c3                   	ret

ffffffffc0101da0 <__umoddi3>:
ffffffffc0101da0:	53                   	push   %rbx
ffffffffc0101da1:	48 83 ec 10          	sub    $0x10,%rsp
ffffffffc0101da5:	48 8d 5c 24 08       	lea    0x8(%rsp),%rbx
ffffffffc0101daa:	48 89 da             	mov    %rbx,%rdx
ffffffffc0101dad:	e8 aa fd ff ff       	call   ffffffffc0101b5c <__udivmoddi4>
ffffffffc0101db2:	48 8b 03             	mov    (%rbx),%rax
ffffffffc0101db5:	48 83 c4 10          	add    $0x10,%rsp
ffffffffc0101db9:	5b                   	pop    %rbx
ffffffffc0101dba:	c3                   	ret

ffffffffc0101dbb <__divmodsi4>:
ffffffffc0101dbb:	48 89 d1             	mov    %rdx,%rcx
ffffffffc0101dbe:	41 89 f0             	mov    %esi,%r8d
ffffffffc0101dc1:	41 31 f8             	xor    %edi,%r8d
ffffffffc0101dc4:	41 c1 f8 1f          	sar    $0x1f,%r8d
ffffffffc0101dc8:	89 f8                	mov    %edi,%eax
ffffffffc0101dca:	f7 d8                	neg    %eax
ffffffffc0101dcc:	0f 48 c7             	cmovs  %edi,%eax
ffffffffc0101dcf:	41 89 f1             	mov    %esi,%r9d
ffffffffc0101dd2:	41 f7 d9             	neg    %r9d
ffffffffc0101dd5:	44 0f 48 ce          	cmovs  %esi,%r9d
ffffffffc0101dd9:	31 d2                	xor    %edx,%edx
ffffffffc0101ddb:	41 f7 f1             	div    %r9d
ffffffffc0101dde:	44 31 c0             	xor    %r8d,%eax
ffffffffc0101de1:	44 29 c0             	sub    %r8d,%eax
ffffffffc0101de4:	0f af f0             	imul   %eax,%esi
ffffffffc0101de7:	29 f7                	sub    %esi,%edi
ffffffffc0101de9:	89 39                	mov    %edi,(%rcx)
ffffffffc0101deb:	c3                   	ret

ffffffffc0101dec <__udivmodsi4>:
ffffffffc0101dec:	55                   	push   %rbp
ffffffffc0101ded:	41 56                	push   %r14
ffffffffc0101def:	53                   	push   %rbx
ffffffffc0101df0:	48 89 d3             	mov    %rdx,%rbx
ffffffffc0101df3:	89 f5                	mov    %esi,%ebp
ffffffffc0101df5:	41 89 fe             	mov    %edi,%r14d
ffffffffc0101df8:	e8 a7 fe ff ff       	call   ffffffffc0101ca4 <__udivsi3>
ffffffffc0101dfd:	0f af e8             	imul   %eax,%ebp
ffffffffc0101e00:	41 29 ee             	sub    %ebp,%r14d
ffffffffc0101e03:	44 89 33             	mov    %r14d,(%rbx)
ffffffffc0101e06:	5b                   	pop    %rbx
ffffffffc0101e07:	41 5e                	pop    %r14
ffffffffc0101e09:	5d                   	pop    %rbp
ffffffffc0101e0a:	c3                   	ret

ffffffffc0101e0b <compiler_rt.udivmod.udivmod__anon_2458>:
ffffffffc0101e0b:	41 57                	push   %r15
ffffffffc0101e0d:	41 56                	push   %r14
ffffffffc0101e0f:	41 54                	push   %r12
ffffffffc0101e11:	53                   	push   %rbx
ffffffffc0101e12:	50                   	push   %rax
ffffffffc0101e13:	4c 89 c3             	mov    %r8,%rbx
ffffffffc0101e16:	49 89 f7             	mov    %rsi,%r15
ffffffffc0101e19:	49 89 fe             	mov    %rdi,%r14
ffffffffc0101e1c:	48 39 d7             	cmp    %rdx,%rdi
ffffffffc0101e1f:	48 89 f0             	mov    %rsi,%rax
ffffffffc0101e22:	48 19 c8             	sbb    %rcx,%rax
ffffffffc0101e25:	73 13                	jae    ffffffffc0101e3a <compiler_rt.udivmod.udivmod__anon_2458+0x2f>
ffffffffc0101e27:	48 85 db             	test   %rbx,%rbx
ffffffffc0101e2a:	74 07                	je     ffffffffc0101e33 <compiler_rt.udivmod.udivmod__anon_2458+0x28>
ffffffffc0101e2c:	4c 89 33             	mov    %r14,(%rbx)
ffffffffc0101e2f:	4c 89 7b 08          	mov    %r15,0x8(%rbx)
ffffffffc0101e33:	31 c0                	xor    %eax,%eax
ffffffffc0101e35:	e9 89 00 00 00       	jmp    ffffffffc0101ec3 <compiler_rt.udivmod.udivmod__anon_2458+0xb8>
ffffffffc0101e3a:	49 89 d0             	mov    %rdx,%r8
ffffffffc0101e3d:	48 85 c9             	test   %rcx,%rcx
ffffffffc0101e40:	0f 84 8e 00 00 00    	je     ffffffffc0101ed4 <compiler_rt.udivmod.udivmod__anon_2458+0xc9>
ffffffffc0101e46:	4c 0f bd e1          	bsr    %rcx,%r12
ffffffffc0101e4a:	41 83 f4 3f          	xor    $0x3f,%r12d
ffffffffc0101e4e:	6a 7f                	push   $0x7f
ffffffffc0101e50:	58                   	pop    %rax
ffffffffc0101e51:	49 0f bd c7          	bsr    %r15,%rax
ffffffffc0101e55:	83 f0 3f             	xor    $0x3f,%eax
ffffffffc0101e58:	41 28 c4             	sub    %al,%r12b
ffffffffc0101e5b:	44 89 e0             	mov    %r12d,%eax
ffffffffc0101e5e:	24 7f                	and    $0x7f,%al
ffffffffc0101e60:	0f b6 d0             	movzbl %al,%edx
ffffffffc0101e63:	4c 89 c7             	mov    %r8,%rdi
ffffffffc0101e66:	48 89 ce             	mov    %rcx,%rsi
ffffffffc0101e69:	e8 f8 fa ff ff       	call   ffffffffc0101966 <__ashlti3>
ffffffffc0101e6e:	48 89 c1             	mov    %rax,%rcx
ffffffffc0101e71:	41 fe c4             	inc    %r12b
ffffffffc0101e74:	41 0f b6 f4          	movzbl %r12b,%esi
ffffffffc0101e78:	83 e6 7f             	and    $0x7f,%esi
ffffffffc0101e7b:	31 c0                	xor    %eax,%eax
ffffffffc0101e7d:	48 83 ee 01          	sub    $0x1,%rsi
ffffffffc0101e81:	72 34                	jb     ffffffffc0101eb7 <compiler_rt.udivmod.udivmod__anon_2458+0xac>
ffffffffc0101e83:	4c 89 ff             	mov    %r15,%rdi
ffffffffc0101e86:	48 f7 d7             	not    %rdi
ffffffffc0101e89:	4d 89 f0             	mov    %r14,%r8
ffffffffc0101e8c:	49 f7 d0             	not    %r8
ffffffffc0101e8f:	49 01 c8             	add    %rcx,%r8
ffffffffc0101e92:	48 11 d7             	adc    %rdx,%rdi
ffffffffc0101e95:	48 0f a4 f8 01       	shld   $0x1,%rdi,%rax
ffffffffc0101e9a:	48 c1 ff 3f          	sar    $0x3f,%rdi
ffffffffc0101e9e:	49 89 f8             	mov    %rdi,%r8
ffffffffc0101ea1:	49 21 d0             	and    %rdx,%r8
ffffffffc0101ea4:	48 21 cf             	and    %rcx,%rdi
ffffffffc0101ea7:	49 29 fe             	sub    %rdi,%r14
ffffffffc0101eaa:	4d 19 c7             	sbb    %r8,%r15
ffffffffc0101ead:	48 0f ac d1 01       	shrd   $0x1,%rdx,%rcx
ffffffffc0101eb2:	48 d1 ea             	shr    $1,%rdx
ffffffffc0101eb5:	eb c6                	jmp    ffffffffc0101e7d <compiler_rt.udivmod.udivmod__anon_2458+0x72>
ffffffffc0101eb7:	48 85 db             	test   %rbx,%rbx
ffffffffc0101eba:	74 07                	je     ffffffffc0101ec3 <compiler_rt.udivmod.udivmod__anon_2458+0xb8>
ffffffffc0101ebc:	4c 89 33             	mov    %r14,(%rbx)
ffffffffc0101ebf:	4c 89 7b 08          	mov    %r15,0x8(%rbx)
ffffffffc0101ec3:	31 f6                	xor    %esi,%esi
ffffffffc0101ec5:	48 89 f2             	mov    %rsi,%rdx
ffffffffc0101ec8:	48 83 c4 08          	add    $0x8,%rsp
ffffffffc0101ecc:	5b                   	pop    %rbx
ffffffffc0101ecd:	41 5c                	pop    %r12
ffffffffc0101ecf:	41 5e                	pop    %r14
ffffffffc0101ed1:	41 5f                	pop    %r15
ffffffffc0101ed3:	c3                   	ret
ffffffffc0101ed4:	4d 39 c7             	cmp    %r8,%r15
ffffffffc0101ed7:	73 0d                	jae    ffffffffc0101ee6 <compiler_rt.udivmod.udivmod__anon_2458+0xdb>
ffffffffc0101ed9:	4c 89 f0             	mov    %r14,%rax
ffffffffc0101edc:	4c 89 fa             	mov    %r15,%rdx
ffffffffc0101edf:	49 f7 f0             	div    %r8
ffffffffc0101ee2:	31 f6                	xor    %esi,%esi
ffffffffc0101ee4:	eb 11                	jmp    ffffffffc0101ef7 <compiler_rt.udivmod.udivmod__anon_2458+0xec>
ffffffffc0101ee6:	4c 89 f8             	mov    %r15,%rax
ffffffffc0101ee9:	31 d2                	xor    %edx,%edx
ffffffffc0101eeb:	49 f7 f0             	div    %r8
ffffffffc0101eee:	48 89 c6             	mov    %rax,%rsi
ffffffffc0101ef1:	4c 89 f0             	mov    %r14,%rax
ffffffffc0101ef4:	49 f7 f0             	div    %r8
ffffffffc0101ef7:	48 85 db             	test   %rbx,%rbx
ffffffffc0101efa:	74 c9                	je     ffffffffc0101ec5 <compiler_rt.udivmod.udivmod__anon_2458+0xba>
ffffffffc0101efc:	48 89 13             	mov    %rdx,(%rbx)
ffffffffc0101eff:	48 83 63 08 00       	andq   $0x0,0x8(%rbx)
ffffffffc0101f04:	eb bf                	jmp    ffffffffc0101ec5 <compiler_rt.udivmod.udivmod__anon_2458+0xba>

ffffffffc0101f06 <compiler_rt.udivmod.divwide__anon_2480>:
ffffffffc0101f06:	49 89 c8             	mov    %rcx,%r8
ffffffffc0101f09:	41 89 d1             	mov    %edx,%r9d
ffffffffc0101f0c:	b8 3f 00 00 00       	mov    $0x3f,%eax
ffffffffc0101f11:	0f bd c2             	bsr    %edx,%eax
ffffffffc0101f14:	83 f0 1f             	xor    $0x1f,%eax
ffffffffc0101f17:	41 89 c2             	mov    %eax,%r10d
ffffffffc0101f1a:	41 83 e2 1f          	and    $0x1f,%r10d
ffffffffc0101f1e:	74 17                	je     ffffffffc0101f37 <compiler_rt.udivmod.divwide__anon_2480+0x31>
ffffffffc0101f20:	44 89 d1             	mov    %r10d,%ecx
ffffffffc0101f23:	41 d3 e1             	shl    %cl,%r9d
ffffffffc0101f26:	d3 e7                	shl    %cl,%edi
ffffffffc0101f28:	f6 d8                	neg    %al
ffffffffc0101f2a:	89 f2                	mov    %esi,%edx
ffffffffc0101f2c:	89 c1                	mov    %eax,%ecx
ffffffffc0101f2e:	d3 ea                	shr    %cl,%edx
ffffffffc0101f30:	09 d7                	or     %edx,%edi
ffffffffc0101f32:	44 89 d1             	mov    %r10d,%ecx
ffffffffc0101f35:	d3 e6                	shl    %cl,%esi
ffffffffc0101f37:	55                   	push   %rbp
ffffffffc0101f38:	41 56                	push   %r14
ffffffffc0101f3a:	53                   	push   %rbx
ffffffffc0101f3b:	44 89 c9             	mov    %r9d,%ecx
ffffffffc0101f3e:	c1 e9 10             	shr    $0x10,%ecx
ffffffffc0101f41:	89 f8                	mov    %edi,%eax
ffffffffc0101f43:	31 d2                	xor    %edx,%edx
ffffffffc0101f45:	f7 f1                	div    %ecx
ffffffffc0101f47:	41 89 c3             	mov    %eax,%r11d
ffffffffc0101f4a:	bd ff ff 00 00       	mov    $0xffff,%ebp
ffffffffc0101f4f:	44 89 cb             	mov    %r9d,%ebx
ffffffffc0101f52:	21 eb                	and    %ebp,%ebx
ffffffffc0101f54:	89 f0                	mov    %esi,%eax
ffffffffc0101f56:	21 ee                	and    %ebp,%esi
ffffffffc0101f58:	c1 e8 10             	shr    $0x10,%eax
ffffffffc0101f5b:	41 81 fb ff ff 00 00 	cmp    $0xffff,%r11d
ffffffffc0101f62:	77 15                	ja     ffffffffc0101f79 <compiler_rt.udivmod.divwide__anon_2480+0x73>
ffffffffc0101f64:	44 89 dd             	mov    %r11d,%ebp
ffffffffc0101f67:	0f af eb             	imul   %ebx,%ebp
ffffffffc0101f6a:	41 89 d6             	mov    %edx,%r14d
ffffffffc0101f6d:	41 c1 e6 10          	shl    $0x10,%r14d
ffffffffc0101f71:	41 09 c6             	or     %eax,%r14d
ffffffffc0101f74:	44 39 f5             	cmp    %r14d,%ebp
ffffffffc0101f77:	76 0d                	jbe    ffffffffc0101f86 <compiler_rt.udivmod.divwide__anon_2480+0x80>
ffffffffc0101f79:	41 ff cb             	dec    %r11d
ffffffffc0101f7c:	01 ca                	add    %ecx,%edx
ffffffffc0101f7e:	81 fa ff ff 00 00    	cmp    $0xffff,%edx
ffffffffc0101f84:	76 d5                	jbe    ffffffffc0101f5b <compiler_rt.udivmod.divwide__anon_2480+0x55>
ffffffffc0101f86:	c1 e7 10             	shl    $0x10,%edi
ffffffffc0101f89:	09 c7                	or     %eax,%edi
ffffffffc0101f8b:	44 89 d8             	mov    %r11d,%eax
ffffffffc0101f8e:	41 0f af c1          	imul   %r9d,%eax
ffffffffc0101f92:	29 c7                	sub    %eax,%edi
ffffffffc0101f94:	89 f8                	mov    %edi,%eax
ffffffffc0101f96:	31 d2                	xor    %edx,%edx
ffffffffc0101f98:	f7 f1                	div    %ecx
ffffffffc0101f9a:	3d ff ff 00 00       	cmp    $0xffff,%eax
ffffffffc0101f9f:	77 14                	ja     ffffffffc0101fb5 <compiler_rt.udivmod.divwide__anon_2480+0xaf>
ffffffffc0101fa1:	89 c5                	mov    %eax,%ebp
ffffffffc0101fa3:	0f af eb             	imul   %ebx,%ebp
ffffffffc0101fa6:	41 89 d6             	mov    %edx,%r14d
ffffffffc0101fa9:	41 c1 e6 10          	shl    $0x10,%r14d
ffffffffc0101fad:	41 09 f6             	or     %esi,%r14d
ffffffffc0101fb0:	44 39 f5             	cmp    %r14d,%ebp
ffffffffc0101fb3:	76 0c                	jbe    ffffffffc0101fc1 <compiler_rt.udivmod.divwide__anon_2480+0xbb>
ffffffffc0101fb5:	ff c8                	dec    %eax
ffffffffc0101fb7:	01 ca                	add    %ecx,%edx
ffffffffc0101fb9:	81 fa 00 00 01 00    	cmp    $0x10000,%edx
ffffffffc0101fbf:	72 d9                	jb     ffffffffc0101f9a <compiler_rt.udivmod.divwide__anon_2480+0x94>
ffffffffc0101fc1:	c1 e7 10             	shl    $0x10,%edi
ffffffffc0101fc4:	09 f7                	or     %esi,%edi
ffffffffc0101fc6:	44 0f af c8          	imul   %eax,%r9d
ffffffffc0101fca:	44 29 cf             	sub    %r9d,%edi
ffffffffc0101fcd:	44 89 d1             	mov    %r10d,%ecx
ffffffffc0101fd0:	d3 ef                	shr    %cl,%edi
ffffffffc0101fd2:	41 89 38             	mov    %edi,(%r8)
ffffffffc0101fd5:	41 c1 e3 10          	shl    $0x10,%r11d
ffffffffc0101fd9:	41 01 c3             	add    %eax,%r11d
ffffffffc0101fdc:	44 89 d8             	mov    %r11d,%eax
ffffffffc0101fdf:	5b                   	pop    %rbx
ffffffffc0101fe0:	41 5e                	pop    %r14
ffffffffc0101fe2:	5d                   	pop    %rbp
ffffffffc0101fe3:	c3                   	ret

ffffffffc0101fe4 <__mulsi3>:
ffffffffc0101fe4:	31 c0                	xor    %eax,%eax
ffffffffc0101fe6:	85 ff                	test   %edi,%edi
ffffffffc0101fe8:	74 11                	je     ffffffffc0101ffb <__mulsi3+0x17>
ffffffffc0101fea:	89 f9                	mov    %edi,%ecx
ffffffffc0101fec:	83 e1 01             	and    $0x1,%ecx
ffffffffc0101fef:	f7 d9                	neg    %ecx
ffffffffc0101ff1:	21 f1                	and    %esi,%ecx
ffffffffc0101ff3:	01 c8                	add    %ecx,%eax
ffffffffc0101ff5:	d1 ef                	shr    $1,%edi
ffffffffc0101ff7:	01 f6                	add    %esi,%esi
ffffffffc0101ff9:	eb eb                	jmp    ffffffffc0101fe6 <__mulsi3+0x2>
ffffffffc0101ffb:	c3                   	ret

ffffffffc0101ffc <__muldi3>:
ffffffffc0101ffc:	53                   	push   %rbx
ffffffffc0101ffd:	48 89 f8             	mov    %rdi,%rax
ffffffffc0102000:	48 89 f9             	mov    %rdi,%rcx
ffffffffc0102003:	48 c1 e9 20          	shr    $0x20,%rcx
ffffffffc0102007:	48 89 f2             	mov    %rsi,%rdx
ffffffffc010200a:	48 c1 ea 20          	shr    $0x20,%rdx
ffffffffc010200e:	41 b8 ff ff 00 00    	mov    $0xffff,%r8d
ffffffffc0102014:	44 21 c7             	and    %r8d,%edi
ffffffffc0102017:	41 89 f1             	mov    %esi,%r9d
ffffffffc010201a:	45 21 c1             	and    %r8d,%r9d
ffffffffc010201d:	45 89 ca             	mov    %r9d,%r10d
ffffffffc0102020:	44 0f af d7          	imul   %edi,%r10d
ffffffffc0102024:	45 89 d3             	mov    %r10d,%r11d
ffffffffc0102027:	41 c1 eb 10          	shr    $0x10,%r11d
ffffffffc010202b:	45 21 c2             	and    %r8d,%r10d
ffffffffc010202e:	89 c3                	mov    %eax,%ebx
ffffffffc0102030:	c1 eb 10             	shr    $0x10,%ebx
ffffffffc0102033:	44 0f af cb          	imul   %ebx,%r9d
ffffffffc0102037:	45 01 d9             	add    %r11d,%r9d
ffffffffc010203a:	45 89 cb             	mov    %r9d,%r11d
ffffffffc010203d:	41 c1 eb 10          	shr    $0x10,%r11d
ffffffffc0102041:	45 21 c1             	and    %r8d,%r9d
ffffffffc0102044:	41 89 f0             	mov    %esi,%r8d
ffffffffc0102047:	41 c1 e8 10          	shr    $0x10,%r8d
ffffffffc010204b:	41 0f af f8          	imul   %r8d,%edi
ffffffffc010204f:	44 01 cf             	add    %r9d,%edi
ffffffffc0102052:	41 89 f9             	mov    %edi,%r9d
ffffffffc0102055:	41 c1 e1 10          	shl    $0x10,%r9d
ffffffffc0102059:	45 09 d1             	or     %r10d,%r9d
ffffffffc010205c:	c1 ef 10             	shr    $0x10,%edi
ffffffffc010205f:	44 0f af c3          	imul   %ebx,%r8d
ffffffffc0102063:	45 01 d8             	add    %r11d,%r8d
ffffffffc0102066:	41 01 f8             	add    %edi,%r8d
ffffffffc0102069:	49 c1 e0 20          	shl    $0x20,%r8
ffffffffc010206d:	0f af f1             	imul   %ecx,%esi
ffffffffc0102070:	0f af c2             	imul   %edx,%eax
ffffffffc0102073:	01 f0                	add    %esi,%eax
ffffffffc0102075:	48 c1 e0 20          	shl    $0x20,%rax
ffffffffc0102079:	4c 09 c8             	or     %r9,%rax
ffffffffc010207c:	4c 01 c0             	add    %r8,%rax
ffffffffc010207f:	5b                   	pop    %rbx
ffffffffc0102080:	c3                   	ret

ffffffffc0102081 <__multi3>:
ffffffffc0102081:	41 89 f8             	mov    %edi,%r8d
ffffffffc0102084:	89 d0                	mov    %edx,%eax
ffffffffc0102086:	49 89 c2             	mov    %rax,%r10
ffffffffc0102089:	4d 0f af d0          	imul   %r8,%r10
ffffffffc010208d:	45 89 d1             	mov    %r10d,%r9d
ffffffffc0102090:	49 c1 ea 20          	shr    $0x20,%r10
ffffffffc0102094:	48 0f af cf          	imul   %rdi,%rcx
ffffffffc0102098:	48 c1 ef 20          	shr    $0x20,%rdi
ffffffffc010209c:	48 0f af c7          	imul   %rdi,%rax
ffffffffc01020a0:	4c 01 d0             	add    %r10,%rax
ffffffffc01020a3:	41 89 c2             	mov    %eax,%r10d
ffffffffc01020a6:	49 89 c3             	mov    %rax,%r11
ffffffffc01020a9:	49 c1 eb 20          	shr    $0x20,%r11
ffffffffc01020ad:	48 0f af f2          	imul   %rdx,%rsi
ffffffffc01020b1:	48 c1 ea 20          	shr    $0x20,%rdx
ffffffffc01020b5:	4c 0f af c2          	imul   %rdx,%r8
ffffffffc01020b9:	4d 01 d0             	add    %r10,%r8
ffffffffc01020bc:	4c 89 c0             	mov    %r8,%rax
ffffffffc01020bf:	48 c1 e0 20          	shl    $0x20,%rax
ffffffffc01020c3:	4c 09 c8             	or     %r9,%rax
ffffffffc01020c6:	49 c1 e8 20          	shr    $0x20,%r8
ffffffffc01020ca:	48 0f af d7          	imul   %rdi,%rdx
ffffffffc01020ce:	48 01 f1             	add    %rsi,%rcx
ffffffffc01020d1:	48 01 ca             	add    %rcx,%rdx
ffffffffc01020d4:	4c 01 da             	add    %r11,%rdx
ffffffffc01020d7:	4c 01 c2             	add    %r8,%rdx
ffffffffc01020da:	c3                   	ret

ffffffffc01020db <__udivti3>:
ffffffffc01020db:	45 31 c0             	xor    %r8d,%r8d
ffffffffc01020de:	e9 28 fd ff ff       	jmp    ffffffffc0101e0b <compiler_rt.udivmod.udivmod__anon_2458>

ffffffffc01020e3 <__modti3>:
ffffffffc01020e3:	41 56                	push   %r14
ffffffffc01020e5:	53                   	push   %rbx
ffffffffc01020e6:	48 83 ec 18          	sub    $0x18,%rsp
ffffffffc01020ea:	49 89 f6             	mov    %rsi,%r14
ffffffffc01020ed:	49 c1 fe 3f          	sar    $0x3f,%r14
ffffffffc01020f1:	4c 31 f6             	xor    %r14,%rsi
ffffffffc01020f4:	4c 31 f7             	xor    %r14,%rdi
ffffffffc01020f7:	4c 29 f7             	sub    %r14,%rdi
ffffffffc01020fa:	4c 19 f6             	sbb    %r14,%rsi
ffffffffc01020fd:	48 89 c8             	mov    %rcx,%rax
ffffffffc0102100:	48 c1 f8 3f          	sar    $0x3f,%rax
ffffffffc0102104:	48 31 c1             	xor    %rax,%rcx
ffffffffc0102107:	48 31 c2             	xor    %rax,%rdx
ffffffffc010210a:	48 29 c2             	sub    %rax,%rdx
ffffffffc010210d:	48 19 c1             	sbb    %rax,%rcx
ffffffffc0102110:	48 89 e3             	mov    %rsp,%rbx
ffffffffc0102113:	49 89 d8             	mov    %rbx,%r8
ffffffffc0102116:	e8 f0 fc ff ff       	call   ffffffffc0101e0b <compiler_rt.udivmod.udivmod__anon_2458>
ffffffffc010211b:	48 8b 53 08          	mov    0x8(%rbx),%rdx
ffffffffc010211f:	4c 31 f2             	xor    %r14,%rdx
ffffffffc0102122:	48 8b 03             	mov    (%rbx),%rax
ffffffffc0102125:	4c 31 f0             	xor    %r14,%rax
ffffffffc0102128:	4c 29 f0             	sub    %r14,%rax
ffffffffc010212b:	4c 19 f2             	sbb    %r14,%rdx
ffffffffc010212e:	48 83 c4 18          	add    $0x18,%rsp
ffffffffc0102132:	5b                   	pop    %rbx
ffffffffc0102133:	41 5e                	pop    %r14
ffffffffc0102135:	c3                   	ret

ffffffffc0102136 <__umodti3>:
ffffffffc0102136:	53                   	push   %rbx
ffffffffc0102137:	48 83 ec 10          	sub    $0x10,%rsp
ffffffffc010213b:	48 89 e3             	mov    %rsp,%rbx
ffffffffc010213e:	49 89 d8             	mov    %rbx,%r8
ffffffffc0102141:	e8 c5 fc ff ff       	call   ffffffffc0101e0b <compiler_rt.udivmod.udivmod__anon_2458>
ffffffffc0102146:	48 8b 03             	mov    (%rbx),%rax
ffffffffc0102149:	48 8b 53 08          	mov    0x8(%rbx),%rdx
ffffffffc010214d:	48 83 c4 10          	add    $0x10,%rsp
ffffffffc0102151:	5b                   	pop    %rbx
ffffffffc0102152:	c3                   	ret

ffffffffc0102153 <__absvsi2>:
ffffffffc0102153:	89 f8                	mov    %edi,%eax
ffffffffc0102155:	f7 d8                	neg    %eax
ffffffffc0102157:	0f 48 c7             	cmovs  %edi,%eax
ffffffffc010215a:	85 c0                	test   %eax,%eax
ffffffffc010215c:	78 01                	js     ffffffffc010215f <__absvsi2+0xc>
ffffffffc010215e:	c3                   	ret
ffffffffc010215f:	50                   	push   %rax
ffffffffc0102160:	6a 1a                	push   $0x1a
ffffffffc0102162:	5e                   	pop    %rsi
ffffffffc0102163:	48 c7 c7 97 8c 11 c0 	mov    $0xffffffffc0118c97,%rdi
ffffffffc010216a:	e8 75 35 01 00       	call   ffffffffc01156e4 <builtin.panic__struct_2667.panic>

ffffffffc010216f <arch.x86-64.arch.spinWait>:
ffffffffc010216f:	f4                   	hlt
ffffffffc0102170:	eb fd                	jmp    ffffffffc010216f <arch.x86-64.arch.spinWait>

ffffffffc0102172 <tty.printStr>:
ffffffffc0102172:	41 57                	push   %r15
ffffffffc0102174:	41 56                	push   %r14
ffffffffc0102176:	53                   	push   %rbx
ffffffffc0102177:	48 89 f3             	mov    %rsi,%rbx
ffffffffc010217a:	49 89 fe             	mov    %rdi,%r14
ffffffffc010217d:	c6 05 a4 6e 01 00 00 	movb   $0x0,0x16ea4(%rip)        # ffffffffc0119028 <tty.update_cursor>
ffffffffc0102184:	45 31 ff             	xor    %r15d,%r15d
ffffffffc0102187:	4c 39 fb             	cmp    %r15,%rbx
ffffffffc010218a:	74 0f                	je     ffffffffc010219b <tty.printStr+0x29>
ffffffffc010218c:	43 0f b6 3c 3e       	movzbl (%r14,%r15,1),%edi
ffffffffc0102191:	e8 24 00 00 00       	call   ffffffffc01021ba <tty.printChar>
ffffffffc0102196:	49 ff c7             	inc    %r15
ffffffffc0102199:	eb ec                	jmp    ffffffffc0102187 <tty.printStr+0x15>
ffffffffc010219b:	c6 05 86 6e 01 00 01 	movb   $0x1,0x16e86(%rip)        # ffffffffc0119028 <tty.update_cursor>
ffffffffc01021a2:	0f b6 35 58 7e 01 00 	movzbl 0x17e58(%rip),%esi        # ffffffffc011a001 <tty.cursor.y>
ffffffffc01021a9:	0f b6 3d 50 7e 01 00 	movzbl 0x17e50(%rip),%edi        # ffffffffc011a000 <tty.cursor.x>
ffffffffc01021b0:	5b                   	pop    %rbx
ffffffffc01021b1:	41 5e                	pop    %r14
ffffffffc01021b3:	41 5f                	pop    %r15
ffffffffc01021b5:	e9 ae 01 00 00       	jmp    ffffffffc0102368 <arch.x86-64.vga.setCursorPos>

ffffffffc01021ba <tty.printChar>:
ffffffffc01021ba:	55                   	push   %rbp
ffffffffc01021bb:	41 56                	push   %r14
ffffffffc01021bd:	53                   	push   %rbx
ffffffffc01021be:	40 80 ff 0d          	cmp    $0xd,%dil
ffffffffc01021c2:	74 6b                	je     ffffffffc010222f <tty.printChar+0x75>
ffffffffc01021c4:	40 0f b6 d7          	movzbl %dil,%edx
ffffffffc01021c8:	83 fa 0a             	cmp    $0xa,%edx
ffffffffc01021cb:	74 2f                	je     ffffffffc01021fc <tty.printChar+0x42>
ffffffffc01021cd:	83 fa 09             	cmp    $0x9,%edx
ffffffffc01021d0:	75 6d                	jne    ffffffffc010223f <tty.printChar+0x85>
ffffffffc01021d2:	6a 04                	push   $0x4
ffffffffc01021d4:	41 5e                	pop    %r14
ffffffffc01021d6:	6a 20                	push   $0x20
ffffffffc01021d8:	5b                   	pop    %rbx
ffffffffc01021d9:	49 83 ee 01          	sub    $0x1,%r14
ffffffffc01021dd:	72 41                	jb     ffffffffc0102220 <tty.printChar+0x66>
ffffffffc01021df:	0f b6 35 1b 7e 01 00 	movzbl 0x17e1b(%rip),%esi        # ffffffffc011a001 <tty.cursor.y>
ffffffffc01021e6:	0f b6 3d 13 7e 01 00 	movzbl 0x17e13(%rip),%edi        # ffffffffc011a000 <tty.cursor.x>
ffffffffc01021ed:	89 da                	mov    %ebx,%edx
ffffffffc01021ef:	e8 23 02 00 00       	call   ffffffffc0102417 <arch.x86-64.vga.putChar>
ffffffffc01021f4:	fe 05 06 7e 01 00    	incb   0x17e06(%rip)        # ffffffffc011a000 <tty.cursor.x>
ffffffffc01021fa:	eb dd                	jmp    ffffffffc01021d9 <tty.printChar+0x1f>
ffffffffc01021fc:	c6 05 fd 7d 01 00 00 	movb   $0x0,0x17dfd(%rip)        # ffffffffc011a000 <tty.cursor.x>
ffffffffc0102203:	8a 05 f8 7d 01 00    	mov    0x17df8(%rip),%al        # ffffffffc011a001 <tty.cursor.y>
ffffffffc0102209:	8d 68 01             	lea    0x1(%rax),%ebp
ffffffffc010220c:	40 88 2d ee 7d 01 00 	mov    %bpl,0x17dee(%rip)        # ffffffffc011a001 <tty.cursor.y>
ffffffffc0102213:	3c 17                	cmp    $0x17,%al
ffffffffc0102215:	0f 86 85 00 00 00    	jbe    ffffffffc01022a0 <tty.printChar+0xe6>
ffffffffc010221b:	e8 76 01 00 00       	call   ffffffffc0102396 <tty.scroll>
ffffffffc0102220:	8a 05 da 7d 01 00    	mov    0x17dda(%rip),%al        # ffffffffc011a000 <tty.cursor.x>
ffffffffc0102226:	40 8a 2d d4 7d 01 00 	mov    0x17dd4(%rip),%bpl        # ffffffffc011a001 <tty.cursor.y>
ffffffffc010222d:	eb 32                	jmp    ffffffffc0102261 <tty.printChar+0xa7>
ffffffffc010222f:	c6 05 ca 7d 01 00 00 	movb   $0x0,0x17dca(%rip)        # ffffffffc011a000 <tty.cursor.x>
ffffffffc0102236:	40 8a 2d c4 7d 01 00 	mov    0x17dc4(%rip),%bpl        # ffffffffc011a001 <tty.cursor.y>
ffffffffc010223d:	eb 37                	jmp    ffffffffc0102276 <tty.printChar+0xbc>
ffffffffc010223f:	0f b6 1d ba 7d 01 00 	movzbl 0x17dba(%rip),%ebx        # ffffffffc011a000 <tty.cursor.x>
ffffffffc0102246:	40 8a 2d b4 7d 01 00 	mov    0x17db4(%rip),%bpl        # ffffffffc011a001 <tty.cursor.y>
ffffffffc010224d:	40 0f b6 f5          	movzbl %bpl,%esi
ffffffffc0102251:	89 df                	mov    %ebx,%edi
ffffffffc0102253:	e8 bf 01 00 00       	call   ffffffffc0102417 <arch.x86-64.vga.putChar>
ffffffffc0102258:	8d 43 01             	lea    0x1(%rbx),%eax
ffffffffc010225b:	88 05 9f 7d 01 00    	mov    %al,0x17d9f(%rip)        # ffffffffc011a000 <tty.cursor.x>
ffffffffc0102261:	3c 4f                	cmp    $0x4f,%al
ffffffffc0102263:	76 13                	jbe    ffffffffc0102278 <tty.printChar+0xbe>
ffffffffc0102265:	40 fe c5             	inc    %bpl
ffffffffc0102268:	40 88 2d 92 7d 01 00 	mov    %bpl,0x17d92(%rip)        # ffffffffc011a001 <tty.cursor.y>
ffffffffc010226f:	c6 05 8a 7d 01 00 00 	movb   $0x0,0x17d8a(%rip)        # ffffffffc011a000 <tty.cursor.x>
ffffffffc0102276:	31 c0                	xor    %eax,%eax
ffffffffc0102278:	40 80 fd 18          	cmp    $0x18,%bpl
ffffffffc010227c:	76 24                	jbe    ffffffffc01022a2 <tty.printChar+0xe8>
ffffffffc010227e:	c6 05 a3 6d 01 00 00 	movb   $0x0,0x16da3(%rip)        # ffffffffc0119028 <tty.update_cursor>
ffffffffc0102285:	e8 0c 01 00 00       	call   ffffffffc0102396 <tty.scroll>
ffffffffc010228a:	c6 05 97 6d 01 00 01 	movb   $0x1,0x16d97(%rip)        # ffffffffc0119028 <tty.update_cursor>
ffffffffc0102291:	8a 05 69 7d 01 00    	mov    0x17d69(%rip),%al        # ffffffffc011a000 <tty.cursor.x>
ffffffffc0102297:	40 8a 2d 63 7d 01 00 	mov    0x17d63(%rip),%bpl        # ffffffffc011a001 <tty.cursor.y>
ffffffffc010229e:	eb 0b                	jmp    ffffffffc01022ab <tty.printChar+0xf1>
ffffffffc01022a0:	31 c0                	xor    %eax,%eax
ffffffffc01022a2:	80 3d 7f 6d 01 00 00 	cmpb   $0x0,0x16d7f(%rip)        # ffffffffc0119028 <tty.update_cursor>
ffffffffc01022a9:	74 10                	je     ffffffffc01022bb <tty.printChar+0x101>
ffffffffc01022ab:	0f b6 f8             	movzbl %al,%edi
ffffffffc01022ae:	40 0f b6 f5          	movzbl %bpl,%esi
ffffffffc01022b2:	5b                   	pop    %rbx
ffffffffc01022b3:	41 5e                	pop    %r14
ffffffffc01022b5:	5d                   	pop    %rbp
ffffffffc01022b6:	e9 ad 00 00 00       	jmp    ffffffffc0102368 <arch.x86-64.vga.setCursorPos>
ffffffffc01022bb:	5b                   	pop    %rbx
ffffffffc01022bc:	41 5e                	pop    %r14
ffffffffc01022be:	5d                   	pop    %rbp
ffffffffc01022bf:	c3                   	ret

ffffffffc01022c0 <Io.Writer.writeAll>:
ffffffffc01022c0:	55                   	push   %rbp
ffffffffc01022c1:	41 57                	push   %r15
ffffffffc01022c3:	41 56                	push   %r14
ffffffffc01022c5:	41 55                	push   %r13
ffffffffc01022c7:	41 54                	push   %r12
ffffffffc01022c9:	53                   	push   %rbx
ffffffffc01022ca:	48 83 ec 28          	sub    $0x28,%rsp
ffffffffc01022ce:	48 89 f3             	mov    %rsi,%rbx
ffffffffc01022d1:	49 89 fe             	mov    %rdi,%r14
ffffffffc01022d4:	45 31 ff             	xor    %r15d,%r15d
ffffffffc01022d7:	4c 8d 64 24 08       	lea    0x8(%rsp),%r12
ffffffffc01022dc:	6a 01                	push   $0x1
ffffffffc01022de:	41 5d                	pop    %r13
ffffffffc01022e0:	48 89 dd             	mov    %rbx,%rbp
ffffffffc01022e3:	4c 29 fd             	sub    %r15,%rbp
ffffffffc01022e6:	76 6f                	jbe    ffffffffc0102357 <Io.Writer.writeAll+0x97>
ffffffffc01022e8:	4b 8d 34 3e          	lea    (%r14,%r15,1),%rsi
ffffffffc01022ec:	48 8b 3d 2d 6d 01 00 	mov    0x16d2d(%rip),%rdi        # ffffffffc0119020 <tty.writer+0x18>
ffffffffc01022f3:	48 8d 04 2f          	lea    (%rdi,%rbp,1),%rax
ffffffffc01022f7:	48 3b 05 1a 6d 01 00 	cmp    0x16d1a(%rip),%rax        # ffffffffc0119018 <tty.writer+0x10>
ffffffffc01022fe:	77 1b                	ja     ffffffffc010231b <Io.Writer.writeAll+0x5b>
ffffffffc0102300:	48 03 3d 09 6d 01 00 	add    0x16d09(%rip),%rdi        # ffffffffc0119010 <tty.writer+0x8>
ffffffffc0102307:	48 89 ea             	mov    %rbp,%rdx
ffffffffc010230a:	e8 46 2a 01 00       	call   ffffffffc0114d55 <memcpy>
ffffffffc010230f:	48 01 2d 0a 6d 01 00 	add    %rbp,0x16d0a(%rip)        # ffffffffc0119020 <tty.writer+0x18>
ffffffffc0102316:	49 01 ef             	add    %rbp,%r15
ffffffffc0102319:	eb c5                	jmp    ffffffffc01022e0 <Io.Writer.writeAll+0x20>
ffffffffc010231b:	48 8b 05 e6 6c 01 00 	mov    0x16ce6(%rip),%rax        # ffffffffc0119008 <tty.writer>
ffffffffc0102322:	48 8b 00             	mov    (%rax),%rax
ffffffffc0102325:	48 89 74 24 08       	mov    %rsi,0x8(%rsp)
ffffffffc010232a:	48 89 6c 24 10       	mov    %rbp,0x10(%rsp)
ffffffffc010232f:	48 8d 7c 24 18       	lea    0x18(%rsp),%rdi
ffffffffc0102334:	48 c7 c6 08 90 11 c0 	mov    $0xffffffffc0119008,%rsi
ffffffffc010233b:	4c 89 e2             	mov    %r12,%rdx
ffffffffc010233e:	4c 89 e9             	mov    %r13,%rcx
ffffffffc0102341:	4d 89 e8             	mov    %r13,%r8
ffffffffc0102344:	ff d0                	call   *%rax
ffffffffc0102346:	0f b7 44 24 20       	movzwl 0x20(%rsp),%eax
ffffffffc010234b:	66 85 c0             	test   %ax,%ax
ffffffffc010234e:	75 09                	jne    ffffffffc0102359 <Io.Writer.writeAll+0x99>
ffffffffc0102350:	48 8b 6c 24 18       	mov    0x18(%rsp),%rbp
ffffffffc0102355:	eb bf                	jmp    ffffffffc0102316 <Io.Writer.writeAll+0x56>
ffffffffc0102357:	31 c0                	xor    %eax,%eax
ffffffffc0102359:	48 83 c4 28          	add    $0x28,%rsp
ffffffffc010235d:	5b                   	pop    %rbx
ffffffffc010235e:	41 5c                	pop    %r12
ffffffffc0102360:	41 5d                	pop    %r13
ffffffffc0102362:	41 5e                	pop    %r14
ffffffffc0102364:	41 5f                	pop    %r15
ffffffffc0102366:	5d                   	pop    %rbp
ffffffffc0102367:	c3                   	ret

ffffffffc0102368 <arch.x86-64.vga.setCursorPos>:
ffffffffc0102368:	b9 ff 00 00 00       	mov    $0xff,%ecx
ffffffffc010236d:	21 ce                	and    %ecx,%esi
ffffffffc010236f:	6b c6 50             	imul   $0x50,%esi,%eax
ffffffffc0102372:	21 f9                	and    %edi,%ecx
ffffffffc0102374:	01 c1                	add    %eax,%ecx
ffffffffc0102376:	66 ba d4 03          	mov    $0x3d4,%dx
ffffffffc010237a:	b0 0f                	mov    $0xf,%al
ffffffffc010237c:	ee                   	out    %al,(%dx)
ffffffffc010237d:	66 ba d5 03          	mov    $0x3d5,%dx
ffffffffc0102381:	89 c8                	mov    %ecx,%eax
ffffffffc0102383:	ee                   	out    %al,(%dx)
ffffffffc0102384:	66 ba d4 03          	mov    $0x3d4,%dx
ffffffffc0102388:	b0 0e                	mov    $0xe,%al
ffffffffc010238a:	ee                   	out    %al,(%dx)
ffffffffc010238b:	c1 e9 08             	shr    $0x8,%ecx
ffffffffc010238e:	66 ba d5 03          	mov    $0x3d5,%dx
ffffffffc0102392:	89 c8                	mov    %ecx,%eax
ffffffffc0102394:	ee                   	out    %al,(%dx)
ffffffffc0102395:	c3                   	ret

ffffffffc0102396 <tty.scroll>:
ffffffffc0102396:	55                   	push   %rbp
ffffffffc0102397:	41 56                	push   %r14
ffffffffc0102399:	53                   	push   %rbx
ffffffffc010239a:	b8 a0 00 00 00       	mov    $0xa0,%eax
ffffffffc010239f:	48 3d a0 0f 00 00    	cmp    $0xfa0,%rax
ffffffffc01023a5:	74 1d                	je     ffffffffc01023c4 <tty.scroll+0x2e>
ffffffffc01023a7:	48 8d b0 00 80 0b c0 	lea    -0x3ff48000(%rax),%rsi
ffffffffc01023ae:	48 8d b8 60 7f 0b c0 	lea    -0x3ff480a0(%rax),%rdi
ffffffffc01023b5:	b9 a0 00 00 00       	mov    $0xa0,%ecx
ffffffffc01023ba:	f3 a4                	rep movsb %ds:(%rsi),%es:(%rdi)
ffffffffc01023bc:	48 05 a0 00 00 00    	add    $0xa0,%rax
ffffffffc01023c2:	eb db                	jmp    ffffffffc010239f <tty.scroll+0x9>
ffffffffc01023c4:	31 db                	xor    %ebx,%ebx
ffffffffc01023c6:	6a 18                	push   $0x18
ffffffffc01023c8:	5d                   	pop    %rbp
ffffffffc01023c9:	6a 20                	push   $0x20
ffffffffc01023cb:	41 5e                	pop    %r14
ffffffffc01023cd:	48 83 fb 50          	cmp    $0x50,%rbx
ffffffffc01023d1:	74 11                	je     ffffffffc01023e4 <tty.scroll+0x4e>
ffffffffc01023d3:	89 df                	mov    %ebx,%edi
ffffffffc01023d5:	89 ee                	mov    %ebp,%esi
ffffffffc01023d7:	44 89 f2             	mov    %r14d,%edx
ffffffffc01023da:	e8 38 00 00 00       	call   ffffffffc0102417 <arch.x86-64.vga.putChar>
ffffffffc01023df:	48 ff c3             	inc    %rbx
ffffffffc01023e2:	eb e9                	jmp    ffffffffc01023cd <tty.scroll+0x37>
ffffffffc01023e4:	8a 05 17 7c 01 00    	mov    0x17c17(%rip),%al        # ffffffffc011a001 <tty.cursor.y>
ffffffffc01023ea:	84 c0                	test   %al,%al
ffffffffc01023ec:	74 24                	je     ffffffffc0102412 <tty.scroll+0x7c>
ffffffffc01023ee:	fe c8                	dec    %al
ffffffffc01023f0:	88 05 0b 7c 01 00    	mov    %al,0x17c0b(%rip)        # ffffffffc011a001 <tty.cursor.y>
ffffffffc01023f6:	80 3d 2b 6c 01 00 01 	cmpb   $0x1,0x16c2b(%rip)        # ffffffffc0119028 <tty.update_cursor>
ffffffffc01023fd:	75 13                	jne    ffffffffc0102412 <tty.scroll+0x7c>
ffffffffc01023ff:	0f b6 f0             	movzbl %al,%esi
ffffffffc0102402:	0f b6 3d f7 7b 01 00 	movzbl 0x17bf7(%rip),%edi        # ffffffffc011a000 <tty.cursor.x>
ffffffffc0102409:	5b                   	pop    %rbx
ffffffffc010240a:	41 5e                	pop    %r14
ffffffffc010240c:	5d                   	pop    %rbp
ffffffffc010240d:	e9 56 ff ff ff       	jmp    ffffffffc0102368 <arch.x86-64.vga.setCursorPos>
ffffffffc0102412:	5b                   	pop    %rbx
ffffffffc0102413:	41 5e                	pop    %r14
ffffffffc0102415:	5d                   	pop    %rbp
ffffffffc0102416:	c3                   	ret

ffffffffc0102417 <arch.x86-64.vga.putChar>:
ffffffffc0102417:	b8 ff 00 00 00       	mov    $0xff,%eax
ffffffffc010241c:	21 c6                	and    %eax,%esi
ffffffffc010241e:	21 c7                	and    %eax,%edi
ffffffffc0102420:	48 69 ce a0 00 00 00 	imul   $0xa0,%rsi,%rcx
ffffffffc0102427:	88 94 79 00 80 0b c0 	mov    %dl,-0x3ff48000(%rcx,%rdi,2)
ffffffffc010242e:	0f b6 35 cb 6b 01 00 	movzbl 0x16bcb(%rip),%esi        # ffffffffc0119000 <arch.x86-64.vga.fg_color>
ffffffffc0102435:	21 c2                	and    %eax,%edx
ffffffffc0102437:	83 e6 0f             	and    $0xf,%esi
ffffffffc010243a:	c1 e6 08             	shl    $0x8,%esi
ffffffffc010243d:	09 d6                	or     %edx,%esi
ffffffffc010243f:	0f b6 05 ca 3f 01 00 	movzbl 0x13fca(%rip),%eax        # ffffffffc0116410 <arch.x86-64.vga.bg_color>
ffffffffc0102446:	c1 e0 0c             	shl    $0xc,%eax
ffffffffc0102449:	09 f0                	or     %esi,%eax
ffffffffc010244b:	66 89 84 79 00 80 0b 	mov    %ax,-0x3ff48000(%rcx,%rdi,2)
ffffffffc0102452:	c0 
ffffffffc0102453:	c3                   	ret

ffffffffc0102454 <Io.Writer.unimplementedSendFile>:
ffffffffc0102454:	48 89 f8             	mov    %rdi,%rax
ffffffffc0102457:	0f 10 05 e2 60 01 00 	movups 0x160e2(%rip),%xmm0        # ffffffffc0118540 <tty.vtable+0x328>
ffffffffc010245e:	0f 11 07             	movups %xmm0,(%rdi)
ffffffffc0102461:	c3                   	ret

ffffffffc0102462 <Io.Writer.defaultFlush>:
ffffffffc0102462:	41 57                	push   %r15
ffffffffc0102464:	41 56                	push   %r14
ffffffffc0102466:	41 54                	push   %r12
ffffffffc0102468:	53                   	push   %rbx
ffffffffc0102469:	48 83 ec 18          	sub    $0x18,%rsp
ffffffffc010246d:	48 89 fb             	mov    %rdi,%rbx
ffffffffc0102470:	48 8b 07             	mov    (%rdi),%rax
ffffffffc0102473:	4c 8b 20             	mov    (%rax),%r12
ffffffffc0102476:	4c 8d 74 24 08       	lea    0x8(%rsp),%r14
ffffffffc010247b:	6a 01                	push   $0x1
ffffffffc010247d:	41 5f                	pop    %r15
ffffffffc010247f:	48 83 7b 18 00       	cmpq   $0x0,0x18(%rbx)
ffffffffc0102484:	74 22                	je     ffffffffc01024a8 <Io.Writer.defaultFlush+0x46>
ffffffffc0102486:	4c 89 f7             	mov    %r14,%rdi
ffffffffc0102489:	48 89 de             	mov    %rbx,%rsi
ffffffffc010248c:	48 c7 c2 00 64 11 c0 	mov    $0xffffffffc0116400,%rdx
ffffffffc0102493:	4c 89 f9             	mov    %r15,%rcx
ffffffffc0102496:	4d 89 f8             	mov    %r15,%r8
ffffffffc0102499:	41 ff d4             	call   *%r12
ffffffffc010249c:	0f b7 44 24 10       	movzwl 0x10(%rsp),%eax
ffffffffc01024a1:	66 85 c0             	test   %ax,%ax
ffffffffc01024a4:	74 d9                	je     ffffffffc010247f <Io.Writer.defaultFlush+0x1d>
ffffffffc01024a6:	eb 02                	jmp    ffffffffc01024aa <Io.Writer.defaultFlush+0x48>
ffffffffc01024a8:	31 c0                	xor    %eax,%eax
ffffffffc01024aa:	48 83 c4 18          	add    $0x18,%rsp
ffffffffc01024ae:	5b                   	pop    %rbx
ffffffffc01024af:	41 5c                	pop    %r12
ffffffffc01024b1:	41 5e                	pop    %r14
ffffffffc01024b3:	41 5f                	pop    %r15
ffffffffc01024b5:	c3                   	ret

ffffffffc01024b6 <Io.Writer.defaultRebase>:
ffffffffc01024b6:	55                   	push   %rbp
ffffffffc01024b7:	41 57                	push   %r15
ffffffffc01024b9:	41 56                	push   %r14
ffffffffc01024bb:	41 55                	push   %r13
ffffffffc01024bd:	41 54                	push   %r12
ffffffffc01024bf:	53                   	push   %rbx
ffffffffc01024c0:	48 83 ec 18          	sub    $0x18,%rsp
ffffffffc01024c4:	48 89 d3             	mov    %rdx,%rbx
ffffffffc01024c7:	49 89 f7             	mov    %rsi,%r15
ffffffffc01024ca:	49 89 fe             	mov    %rdi,%r14
ffffffffc01024cd:	48 8b 47 10          	mov    0x10(%rdi),%rax
ffffffffc01024d1:	4c 8b 6f 18          	mov    0x18(%rdi),%r13
ffffffffc01024d5:	6a 01                	push   $0x1
ffffffffc01024d7:	5d                   	pop    %rbp
ffffffffc01024d8:	4c 29 e8             	sub    %r13,%rax
ffffffffc01024db:	48 39 d8             	cmp    %rbx,%rax
ffffffffc01024de:	73 61                	jae    ffffffffc0102541 <Io.Writer.defaultRebase+0x8b>
ffffffffc01024e0:	4d 89 ec             	mov    %r13,%r12
ffffffffc01024e3:	4d 29 fc             	sub    %r15,%r12
ffffffffc01024e6:	b8 00 00 00 00       	mov    $0x0,%eax
ffffffffc01024eb:	4c 0f 42 e0          	cmovb  %rax,%r12
ffffffffc01024ef:	4d 29 e5             	sub    %r12,%r13
ffffffffc01024f2:	4d 89 66 18          	mov    %r12,0x18(%r14)
ffffffffc01024f6:	49 8b 06             	mov    (%r14),%rax
ffffffffc01024f9:	48 8d 7c 24 08       	lea    0x8(%rsp),%rdi
ffffffffc01024fe:	4c 89 f6             	mov    %r14,%rsi
ffffffffc0102501:	48 c7 c2 00 64 11 c0 	mov    $0xffffffffc0116400,%rdx
ffffffffc0102508:	48 89 e9             	mov    %rbp,%rcx
ffffffffc010250b:	49 89 e8             	mov    %rbp,%r8
ffffffffc010250e:	ff 10                	call   *(%rax)
ffffffffc0102510:	0f b7 44 24 10       	movzwl 0x10(%rsp),%eax
ffffffffc0102515:	66 85 c0             	test   %ax,%ax
ffffffffc0102518:	75 38                	jne    ffffffffc0102552 <Io.Writer.defaultRebase+0x9c>
ffffffffc010251a:	49 8b 46 08          	mov    0x8(%r14),%rax
ffffffffc010251e:	49 8b 7e 18          	mov    0x18(%r14),%rdi
ffffffffc0102522:	48 01 c7             	add    %rax,%rdi
ffffffffc0102525:	49 01 c4             	add    %rax,%r12
ffffffffc0102528:	4c 89 e6             	mov    %r12,%rsi
ffffffffc010252b:	4c 89 ea             	mov    %r13,%rdx
ffffffffc010252e:	e8 98 2d 01 00       	call   ffffffffc01152cb <memmove>
ffffffffc0102533:	4d 03 6e 18          	add    0x18(%r14),%r13
ffffffffc0102537:	4d 89 6e 18          	mov    %r13,0x18(%r14)
ffffffffc010253b:	49 8b 46 10          	mov    0x10(%r14),%rax
ffffffffc010253f:	eb 97                	jmp    ffffffffc01024d8 <Io.Writer.defaultRebase+0x22>
ffffffffc0102541:	31 c0                	xor    %eax,%eax
ffffffffc0102543:	48 83 c4 18          	add    $0x18,%rsp
ffffffffc0102547:	5b                   	pop    %rbx
ffffffffc0102548:	41 5c                	pop    %r12
ffffffffc010254a:	41 5d                	pop    %r13
ffffffffc010254c:	41 5e                	pop    %r14
ffffffffc010254e:	41 5f                	pop    %r15
ffffffffc0102550:	5d                   	pop    %rbp
ffffffffc0102551:	c3                   	ret
ffffffffc0102552:	4d 01 6e 18          	add    %r13,0x18(%r14)
ffffffffc0102556:	eb eb                	jmp    ffffffffc0102543 <Io.Writer.defaultRebase+0x8d>

ffffffffc0102558 <Io.Writer.alignBufferOptions>:
ffffffffc0102558:	55                   	push   %rbp
ffffffffc0102559:	41 57                	push   %r15
ffffffffc010255b:	41 56                	push   %r14
ffffffffc010255d:	53                   	push   %rbx
ffffffffc010255e:	50                   	push   %rax
ffffffffc010255f:	49 89 f6             	mov    %rsi,%r14
ffffffffc0102562:	49 89 ff             	mov    %rdi,%r15
ffffffffc0102565:	80 7a 18 00          	cmpb   $0x0,0x18(%rdx)
ffffffffc0102569:	48 89 f0             	mov    %rsi,%rax
ffffffffc010256c:	74 04                	je     ffffffffc0102572 <Io.Writer.alignBufferOptions+0x1a>
ffffffffc010256e:	48 8b 42 10          	mov    0x10(%rdx),%rax
ffffffffc0102572:	31 db                	xor    %ebx,%ebx
ffffffffc0102574:	4c 29 f0             	sub    %r14,%rax
ffffffffc0102577:	48 0f 43 d8          	cmovae %rax,%rbx
ffffffffc010257b:	77 15                	ja     ffffffffc0102592 <Io.Writer.alignBufferOptions+0x3a>
ffffffffc010257d:	4c 89 ff             	mov    %r15,%rdi
ffffffffc0102580:	4c 89 f6             	mov    %r14,%rsi
ffffffffc0102583:	48 83 c4 08          	add    $0x8,%rsp
ffffffffc0102587:	5b                   	pop    %rbx
ffffffffc0102588:	41 5e                	pop    %r14
ffffffffc010258a:	41 5f                	pop    %r15
ffffffffc010258c:	5d                   	pop    %rbp
ffffffffc010258d:	e9 2e fd ff ff       	jmp    ffffffffc01022c0 <Io.Writer.writeAll>
ffffffffc0102592:	40 8a 6a 21          	mov    0x21(%rdx),%bpl
ffffffffc0102596:	0f b6 42 20          	movzbl 0x20(%rdx),%eax
ffffffffc010259a:	89 c1                	mov    %eax,%ecx
ffffffffc010259c:	80 e1 03             	and    $0x3,%cl
ffffffffc010259f:	80 f9 02             	cmp    $0x2,%cl
ffffffffc01025a2:	74 38                	je     ffffffffc01025dc <Io.Writer.alignBufferOptions+0x84>
ffffffffc01025a4:	83 e0 03             	and    $0x3,%eax
ffffffffc01025a7:	83 f8 01             	cmp    $0x1,%eax
ffffffffc01025aa:	75 43                	jne    ffffffffc01025ef <Io.Writer.alignBufferOptions+0x97>
ffffffffc01025ac:	48 89 de             	mov    %rbx,%rsi
ffffffffc01025af:	48 d1 ee             	shr    $1,%rsi
ffffffffc01025b2:	40 0f b6 ed          	movzbl %bpl,%ebp
ffffffffc01025b6:	89 ef                	mov    %ebp,%edi
ffffffffc01025b8:	e8 60 00 00 00       	call   ffffffffc010261d <Io.Writer.splatByteAll>
ffffffffc01025bd:	66 85 c0             	test   %ax,%ax
ffffffffc01025c0:	75 50                	jne    ffffffffc0102612 <Io.Writer.alignBufferOptions+0xba>
ffffffffc01025c2:	4c 89 ff             	mov    %r15,%rdi
ffffffffc01025c5:	4c 89 f6             	mov    %r14,%rsi
ffffffffc01025c8:	e8 f3 fc ff ff       	call   ffffffffc01022c0 <Io.Writer.writeAll>
ffffffffc01025cd:	66 85 c0             	test   %ax,%ax
ffffffffc01025d0:	75 40                	jne    ffffffffc0102612 <Io.Writer.alignBufferOptions+0xba>
ffffffffc01025d2:	48 ff c3             	inc    %rbx
ffffffffc01025d5:	48 d1 eb             	shr    $1,%rbx
ffffffffc01025d8:	89 ef                	mov    %ebp,%edi
ffffffffc01025da:	eb 27                	jmp    ffffffffc0102603 <Io.Writer.alignBufferOptions+0xab>
ffffffffc01025dc:	40 0f b6 fd          	movzbl %bpl,%edi
ffffffffc01025e0:	48 89 de             	mov    %rbx,%rsi
ffffffffc01025e3:	e8 35 00 00 00       	call   ffffffffc010261d <Io.Writer.splatByteAll>
ffffffffc01025e8:	66 85 c0             	test   %ax,%ax
ffffffffc01025eb:	74 90                	je     ffffffffc010257d <Io.Writer.alignBufferOptions+0x25>
ffffffffc01025ed:	eb 23                	jmp    ffffffffc0102612 <Io.Writer.alignBufferOptions+0xba>
ffffffffc01025ef:	4c 89 ff             	mov    %r15,%rdi
ffffffffc01025f2:	4c 89 f6             	mov    %r14,%rsi
ffffffffc01025f5:	e8 c6 fc ff ff       	call   ffffffffc01022c0 <Io.Writer.writeAll>
ffffffffc01025fa:	66 85 c0             	test   %ax,%ax
ffffffffc01025fd:	75 13                	jne    ffffffffc0102612 <Io.Writer.alignBufferOptions+0xba>
ffffffffc01025ff:	40 0f b6 fd          	movzbl %bpl,%edi
ffffffffc0102603:	48 89 de             	mov    %rbx,%rsi
ffffffffc0102606:	48 83 c4 08          	add    $0x8,%rsp
ffffffffc010260a:	5b                   	pop    %rbx
ffffffffc010260b:	41 5e                	pop    %r14
ffffffffc010260d:	41 5f                	pop    %r15
ffffffffc010260f:	5d                   	pop    %rbp
ffffffffc0102610:	eb 0b                	jmp    ffffffffc010261d <Io.Writer.splatByteAll>
ffffffffc0102612:	48 83 c4 08          	add    $0x8,%rsp
ffffffffc0102616:	5b                   	pop    %rbx
ffffffffc0102617:	41 5e                	pop    %r14
ffffffffc0102619:	41 5f                	pop    %r15
ffffffffc010261b:	5d                   	pop    %rbp
ffffffffc010261c:	c3                   	ret

ffffffffc010261d <Io.Writer.splatByteAll>:
ffffffffc010261d:	55                   	push   %rbp
ffffffffc010261e:	41 57                	push   %r15
ffffffffc0102620:	41 56                	push   %r14
ffffffffc0102622:	41 55                	push   %r13
ffffffffc0102624:	41 54                	push   %r12
ffffffffc0102626:	53                   	push   %rbx
ffffffffc0102627:	48 83 ec 28          	sub    $0x28,%rsp
ffffffffc010262b:	48 89 f3             	mov    %rsi,%rbx
ffffffffc010262e:	41 89 fd             	mov    %edi,%r13d
ffffffffc0102631:	4c 8d 74 24 03       	lea    0x3(%rsp),%r14
ffffffffc0102636:	4c 8d 7c 24 18       	lea    0x18(%rsp),%r15
ffffffffc010263b:	4c 8d 64 24 08       	lea    0x8(%rsp),%r12
ffffffffc0102640:	6a 01                	push   $0x1
ffffffffc0102642:	5d                   	pop    %rbp
ffffffffc0102643:	41 0f b6 c5          	movzbl %r13b,%eax
ffffffffc0102647:	89 44 24 04          	mov    %eax,0x4(%rsp)
ffffffffc010264b:	48 85 db             	test   %rbx,%rbx
ffffffffc010264e:	74 76                	je     ffffffffc01026c6 <Io.Writer.splatByteAll+0xa9>
ffffffffc0102650:	48 8b 3d c9 69 01 00 	mov    0x169c9(%rip),%rdi        # ffffffffc0119020 <tty.writer+0x18>
ffffffffc0102657:	48 8d 04 1f          	lea    (%rdi,%rbx,1),%rax
ffffffffc010265b:	48 3b 05 b6 69 01 00 	cmp    0x169b6(%rip),%rax        # ffffffffc0119018 <tty.writer+0x10>
ffffffffc0102662:	77 22                	ja     ffffffffc0102686 <Io.Writer.splatByteAll+0x69>
ffffffffc0102664:	48 03 3d a5 69 01 00 	add    0x169a5(%rip),%rdi        # ffffffffc0119010 <tty.writer+0x8>
ffffffffc010266b:	8b 74 24 04          	mov    0x4(%rsp),%esi
ffffffffc010266f:	48 89 da             	mov    %rbx,%rdx
ffffffffc0102672:	e8 f6 26 01 00       	call   ffffffffc0114d6d <memset>
ffffffffc0102677:	48 01 1d a2 69 01 00 	add    %rbx,0x169a2(%rip)        # ffffffffc0119020 <tty.writer+0x18>
ffffffffc010267e:	48 89 d8             	mov    %rbx,%rax
ffffffffc0102681:	48 29 c3             	sub    %rax,%rbx
ffffffffc0102684:	eb c5                	jmp    ffffffffc010264b <Io.Writer.splatByteAll+0x2e>
ffffffffc0102686:	44 88 6c 24 03       	mov    %r13b,0x3(%rsp)
ffffffffc010268b:	4c 89 74 24 08       	mov    %r14,0x8(%rsp)
ffffffffc0102690:	48 c7 44 24 10 01 00 	movq   $0x1,0x10(%rsp)
ffffffffc0102697:	00 00 
ffffffffc0102699:	48 8b 05 68 69 01 00 	mov    0x16968(%rip),%rax        # ffffffffc0119008 <tty.writer>
ffffffffc01026a0:	4c 89 ff             	mov    %r15,%rdi
ffffffffc01026a3:	48 c7 c6 08 90 11 c0 	mov    $0xffffffffc0119008,%rsi
ffffffffc01026aa:	4c 89 e2             	mov    %r12,%rdx
ffffffffc01026ad:	48 89 e9             	mov    %rbp,%rcx
ffffffffc01026b0:	49 89 d8             	mov    %rbx,%r8
ffffffffc01026b3:	ff 10                	call   *(%rax)
ffffffffc01026b5:	0f b7 44 24 20       	movzwl 0x20(%rsp),%eax
ffffffffc01026ba:	66 85 c0             	test   %ax,%ax
ffffffffc01026bd:	75 09                	jne    ffffffffc01026c8 <Io.Writer.splatByteAll+0xab>
ffffffffc01026bf:	48 8b 44 24 18       	mov    0x18(%rsp),%rax
ffffffffc01026c4:	eb bb                	jmp    ffffffffc0102681 <Io.Writer.splatByteAll+0x64>
ffffffffc01026c6:	31 c0                	xor    %eax,%eax
ffffffffc01026c8:	48 83 c4 28          	add    $0x28,%rsp
ffffffffc01026cc:	5b                   	pop    %rbx
ffffffffc01026cd:	41 5c                	pop    %r12
ffffffffc01026cf:	41 5d                	pop    %r13
ffffffffc01026d1:	41 5e                	pop    %r14
ffffffffc01026d3:	41 5f                	pop    %r15
ffffffffc01026d5:	5d                   	pop    %rbp
ffffffffc01026d6:	c3                   	ret

ffffffffc01026d7 <__absvdi2>:
ffffffffc01026d7:	48 89 f8             	mov    %rdi,%rax
ffffffffc01026da:	48 f7 d8             	neg    %rax
ffffffffc01026dd:	48 0f 48 c7          	cmovs  %rdi,%rax
ffffffffc01026e1:	48 85 c0             	test   %rax,%rax
ffffffffc01026e4:	78 01                	js     ffffffffc01026e7 <__absvdi2+0x10>
ffffffffc01026e6:	c3                   	ret
ffffffffc01026e7:	50                   	push   %rax
ffffffffc01026e8:	6a 1a                	push   $0x1a
ffffffffc01026ea:	5e                   	pop    %rsi
ffffffffc01026eb:	48 c7 c7 97 8c 11 c0 	mov    $0xffffffffc0118c97,%rdi
ffffffffc01026f2:	e8 ed 2f 01 00       	call   ffffffffc01156e4 <builtin.panic__struct_2667.panic>

ffffffffc01026f7 <__absvti2>:
ffffffffc01026f7:	48 89 f0             	mov    %rsi,%rax
ffffffffc01026fa:	48 c1 f8 3f          	sar    $0x3f,%rax
ffffffffc01026fe:	48 31 c6             	xor    %rax,%rsi
ffffffffc0102701:	48 31 c7             	xor    %rax,%rdi
ffffffffc0102704:	48 29 c7             	sub    %rax,%rdi
ffffffffc0102707:	48 19 c6             	sbb    %rax,%rsi
ffffffffc010270a:	78 07                	js     ffffffffc0102713 <__absvti2+0x1c>
ffffffffc010270c:	48 89 f8             	mov    %rdi,%rax
ffffffffc010270f:	48 89 f2             	mov    %rsi,%rdx
ffffffffc0102712:	c3                   	ret
ffffffffc0102713:	50                   	push   %rax
ffffffffc0102714:	6a 1a                	push   $0x1a
ffffffffc0102716:	5e                   	pop    %rsi
ffffffffc0102717:	48 c7 c7 97 8c 11 c0 	mov    $0xffffffffc0118c97,%rdi
ffffffffc010271e:	e8 c1 2f 01 00       	call   ffffffffc01156e4 <builtin.panic__struct_2667.panic>

ffffffffc0102723 <__negvsi2>:
ffffffffc0102723:	f7 df                	neg    %edi
ffffffffc0102725:	70 03                	jo     ffffffffc010272a <__negvsi2+0x7>
ffffffffc0102727:	89 f8                	mov    %edi,%eax
ffffffffc0102729:	c3                   	ret
ffffffffc010272a:	50                   	push   %rax
ffffffffc010272b:	6a 1a                	push   $0x1a
ffffffffc010272d:	5e                   	pop    %rsi
ffffffffc010272e:	48 c7 c7 b2 8c 11 c0 	mov    $0xffffffffc0118cb2,%rdi
ffffffffc0102735:	e8 aa 2f 01 00       	call   ffffffffc01156e4 <builtin.panic__struct_2667.panic>

ffffffffc010273a <__negvdi2>:
ffffffffc010273a:	48 f7 df             	neg    %rdi
ffffffffc010273d:	70 04                	jo     ffffffffc0102743 <__negvdi2+0x9>
ffffffffc010273f:	48 89 f8             	mov    %rdi,%rax
ffffffffc0102742:	c3                   	ret
ffffffffc0102743:	50                   	push   %rax
ffffffffc0102744:	6a 1a                	push   $0x1a
ffffffffc0102746:	5e                   	pop    %rsi
ffffffffc0102747:	48 c7 c7 b2 8c 11 c0 	mov    $0xffffffffc0118cb2,%rdi
ffffffffc010274e:	e8 91 2f 01 00       	call   ffffffffc01156e4 <builtin.panic__struct_2667.panic>

ffffffffc0102753 <__negvti2>:
ffffffffc0102753:	48 89 f0             	mov    %rsi,%rax
ffffffffc0102756:	48 0f ba f8 3f       	btc    $0x3f,%rax
ffffffffc010275b:	48 09 f8             	or     %rdi,%rax
ffffffffc010275e:	74 0c                	je     ffffffffc010276c <__negvti2+0x19>
ffffffffc0102760:	31 d2                	xor    %edx,%edx
ffffffffc0102762:	48 f7 df             	neg    %rdi
ffffffffc0102765:	48 19 f2             	sbb    %rsi,%rdx
ffffffffc0102768:	48 89 f8             	mov    %rdi,%rax
ffffffffc010276b:	c3                   	ret
ffffffffc010276c:	50                   	push   %rax
ffffffffc010276d:	6a 1a                	push   $0x1a
ffffffffc010276f:	5e                   	pop    %rsi
ffffffffc0102770:	48 c7 c7 b2 8c 11 c0 	mov    $0xffffffffc0118cb2,%rdi
ffffffffc0102777:	e8 68 2f 01 00       	call   ffffffffc01156e4 <builtin.panic__struct_2667.panic>

ffffffffc010277c <__addvsi3>:
ffffffffc010277c:	8d 04 3e             	lea    (%rsi,%rdi,1),%eax
ffffffffc010277f:	31 c7                	xor    %eax,%edi
ffffffffc0102781:	31 c6                	xor    %eax,%esi
ffffffffc0102783:	85 f7                	test   %esi,%edi
ffffffffc0102785:	78 01                	js     ffffffffc0102788 <__addvsi3+0xc>
ffffffffc0102787:	c3                   	ret
ffffffffc0102788:	50                   	push   %rax
ffffffffc0102789:	6a 1d                	push   $0x1d
ffffffffc010278b:	5e                   	pop    %rsi
ffffffffc010278c:	48 c7 c7 69 8c 11 c0 	mov    $0xffffffffc0118c69,%rdi
ffffffffc0102793:	e8 4c 2f 01 00       	call   ffffffffc01156e4 <builtin.panic__struct_2667.panic>

ffffffffc0102798 <__addosi4>:
ffffffffc0102798:	8d 04 3e             	lea    (%rsi,%rdi,1),%eax
ffffffffc010279b:	31 c7                	xor    %eax,%edi
ffffffffc010279d:	31 c6                	xor    %eax,%esi
ffffffffc010279f:	21 fe                	and    %edi,%esi
ffffffffc01027a1:	c1 ee 1f             	shr    $0x1f,%esi
ffffffffc01027a4:	89 32                	mov    %esi,(%rdx)
ffffffffc01027a6:	c3                   	ret

ffffffffc01027a7 <__subvsi3>:
ffffffffc01027a7:	89 f8                	mov    %edi,%eax
ffffffffc01027a9:	29 f0                	sub    %esi,%eax
ffffffffc01027ab:	31 fe                	xor    %edi,%esi
ffffffffc01027ad:	31 c7                	xor    %eax,%edi
ffffffffc01027af:	85 f7                	test   %esi,%edi
ffffffffc01027b1:	78 01                	js     ffffffffc01027b4 <__subvsi3+0xd>
ffffffffc01027b3:	c3                   	ret
ffffffffc01027b4:	50                   	push   %rax
ffffffffc01027b5:	6a 1d                	push   $0x1d
ffffffffc01027b7:	5e                   	pop    %rsi
ffffffffc01027b8:	48 c7 c7 69 8c 11 c0 	mov    $0xffffffffc0118c69,%rdi
ffffffffc01027bf:	e8 20 2f 01 00       	call   ffffffffc01156e4 <builtin.panic__struct_2667.panic>

ffffffffc01027c4 <__subosi4>:
ffffffffc01027c4:	89 f8                	mov    %edi,%eax
ffffffffc01027c6:	29 f0                	sub    %esi,%eax
ffffffffc01027c8:	31 fe                	xor    %edi,%esi
ffffffffc01027ca:	31 c7                	xor    %eax,%edi
ffffffffc01027cc:	21 f7                	and    %esi,%edi
ffffffffc01027ce:	c1 ef 1f             	shr    $0x1f,%edi
ffffffffc01027d1:	89 3a                	mov    %edi,(%rdx)
ffffffffc01027d3:	c3                   	ret

ffffffffc01027d4 <__subvdi3>:
ffffffffc01027d4:	48 89 f8             	mov    %rdi,%rax
ffffffffc01027d7:	48 29 f0             	sub    %rsi,%rax
ffffffffc01027da:	48 31 fe             	xor    %rdi,%rsi
ffffffffc01027dd:	48 31 c7             	xor    %rax,%rdi
ffffffffc01027e0:	48 85 f7             	test   %rsi,%rdi
ffffffffc01027e3:	78 01                	js     ffffffffc01027e6 <__subvdi3+0x12>
ffffffffc01027e5:	c3                   	ret
ffffffffc01027e6:	50                   	push   %rax
ffffffffc01027e7:	6a 1d                	push   $0x1d
ffffffffc01027e9:	5e                   	pop    %rsi
ffffffffc01027ea:	48 c7 c7 69 8c 11 c0 	mov    $0xffffffffc0118c69,%rdi
ffffffffc01027f1:	e8 ee 2e 01 00       	call   ffffffffc01156e4 <builtin.panic__struct_2667.panic>

ffffffffc01027f6 <__subodi4>:
ffffffffc01027f6:	48 89 f8             	mov    %rdi,%rax
ffffffffc01027f9:	48 29 f0             	sub    %rsi,%rax
ffffffffc01027fc:	48 31 fe             	xor    %rdi,%rsi
ffffffffc01027ff:	48 31 c7             	xor    %rax,%rdi
ffffffffc0102802:	48 21 f7             	and    %rsi,%rdi
ffffffffc0102805:	48 c1 ef 3f          	shr    $0x3f,%rdi
ffffffffc0102809:	89 3a                	mov    %edi,(%rdx)
ffffffffc010280b:	c3                   	ret

ffffffffc010280c <__mulvsi3>:
ffffffffc010280c:	48 63 cf             	movslq %edi,%rcx
ffffffffc010280f:	48 63 c6             	movslq %esi,%rax
ffffffffc0102812:	48 0f af c1          	imul   %rcx,%rax
ffffffffc0102816:	48 63 c8             	movslq %eax,%rcx
ffffffffc0102819:	48 39 c1             	cmp    %rax,%rcx
ffffffffc010281c:	75 01                	jne    ffffffffc010281f <__mulvsi3+0x13>
ffffffffc010281e:	c3                   	ret
ffffffffc010281f:	50                   	push   %rax
ffffffffc0102820:	6a 1d                	push   $0x1d
ffffffffc0102822:	5e                   	pop    %rsi
ffffffffc0102823:	48 c7 c7 69 8c 11 c0 	mov    $0xffffffffc0118c69,%rdi
ffffffffc010282a:	e8 b5 2e 01 00       	call   ffffffffc01156e4 <builtin.panic__struct_2667.panic>

ffffffffc010282f <__mulosi4>:
ffffffffc010282f:	48 63 c7             	movslq %edi,%rax
ffffffffc0102832:	48 63 ce             	movslq %esi,%rcx
ffffffffc0102835:	48 0f af c8          	imul   %rax,%rcx
ffffffffc0102839:	48 63 c1             	movslq %ecx,%rax
ffffffffc010283c:	31 f6                	xor    %esi,%esi
ffffffffc010283e:	48 39 c8             	cmp    %rcx,%rax
ffffffffc0102841:	40 0f 95 c6          	setne  %sil
ffffffffc0102845:	89 32                	mov    %esi,(%rdx)
ffffffffc0102847:	c3                   	ret

ffffffffc0102848 <__addodi4>:
ffffffffc0102848:	48 8d 04 3e          	lea    (%rsi,%rdi,1),%rax
ffffffffc010284c:	48 31 c7             	xor    %rax,%rdi
ffffffffc010284f:	48 31 c6             	xor    %rax,%rsi
ffffffffc0102852:	48 21 fe             	and    %rdi,%rsi
ffffffffc0102855:	48 c1 ee 3f          	shr    $0x3f,%rsi
ffffffffc0102859:	89 32                	mov    %esi,(%rdx)
ffffffffc010285b:	c3                   	ret

ffffffffc010285c <__addoti4>:
ffffffffc010285c:	48 89 f8             	mov    %rdi,%rax
ffffffffc010285f:	48 01 d0             	add    %rdx,%rax
ffffffffc0102862:	48 89 ca             	mov    %rcx,%rdx
ffffffffc0102865:	48 11 f2             	adc    %rsi,%rdx
ffffffffc0102868:	48 31 d6             	xor    %rdx,%rsi
ffffffffc010286b:	48 31 d1             	xor    %rdx,%rcx
ffffffffc010286e:	48 21 f1             	and    %rsi,%rcx
ffffffffc0102871:	48 c1 e9 3f          	shr    $0x3f,%rcx
ffffffffc0102875:	41 89 08             	mov    %ecx,(%r8)
ffffffffc0102878:	c3                   	ret

ffffffffc0102879 <__suboti4>:
ffffffffc0102879:	48 89 f8             	mov    %rdi,%rax
ffffffffc010287c:	48 29 d0             	sub    %rdx,%rax
ffffffffc010287f:	48 89 f2             	mov    %rsi,%rdx
ffffffffc0102882:	48 19 ca             	sbb    %rcx,%rdx
ffffffffc0102885:	48 31 f1             	xor    %rsi,%rcx
ffffffffc0102888:	48 31 d6             	xor    %rdx,%rsi
ffffffffc010288b:	48 21 ce             	and    %rcx,%rsi
ffffffffc010288e:	48 c1 ee 3f          	shr    $0x3f,%rsi
ffffffffc0102892:	41 89 30             	mov    %esi,(%r8)
ffffffffc0102895:	c3                   	ret

ffffffffc0102896 <__mulodi4>:
ffffffffc0102896:	83 22 00             	andl   $0x0,(%rdx)
ffffffffc0102899:	48 89 f8             	mov    %rdi,%rax
ffffffffc010289c:	48 0f af c6          	imul   %rsi,%rax
ffffffffc01028a0:	0f 90 c1             	seto   %cl
ffffffffc01028a3:	48 85 ff             	test   %rdi,%rdi
ffffffffc01028a6:	40 0f 98 c7          	sets   %dil
ffffffffc01028aa:	48 f7 de             	neg    %rsi
ffffffffc01028ad:	40 0f 90 c6          	seto   %sil
ffffffffc01028b1:	40 84 f7             	test   %sil,%dil
ffffffffc01028b4:	75 04                	jne    ffffffffc01028ba <__mulodi4+0x24>
ffffffffc01028b6:	84 c9                	test   %cl,%cl
ffffffffc01028b8:	74 06                	je     ffffffffc01028c0 <__mulodi4+0x2a>
ffffffffc01028ba:	c7 02 01 00 00 00    	movl   $0x1,(%rdx)
ffffffffc01028c0:	c3                   	ret

ffffffffc01028c1 <__muloti4>:
ffffffffc01028c1:	41 57                	push   %r15
ffffffffc01028c3:	41 56                	push   %r14
ffffffffc01028c5:	41 54                	push   %r12
ffffffffc01028c7:	53                   	push   %rbx
ffffffffc01028c8:	49 89 d1             	mov    %rdx,%r9
ffffffffc01028cb:	41 83 20 00          	andl   $0x0,(%r8)
ffffffffc01028cf:	49 89 f2             	mov    %rsi,%r10
ffffffffc01028d2:	49 89 f7             	mov    %rsi,%r15
ffffffffc01028d5:	49 c1 ff 3f          	sar    $0x3f,%r15
ffffffffc01028d9:	48 89 f8             	mov    %rdi,%rax
ffffffffc01028dc:	48 f7 e2             	mul    %rdx
ffffffffc01028df:	49 89 d3             	mov    %rdx,%r11
ffffffffc01028e2:	48 89 c6             	mov    %rax,%rsi
ffffffffc01028e5:	4c 89 d0             	mov    %r10,%rax
ffffffffc01028e8:	49 f7 e1             	mul    %r9
ffffffffc01028eb:	48 89 c3             	mov    %rax,%rbx
ffffffffc01028ee:	49 89 d6             	mov    %rdx,%r14
ffffffffc01028f1:	4d 0f af f9          	imul   %r9,%r15
ffffffffc01028f5:	4c 01 db             	add    %r11,%rbx
ffffffffc01028f8:	4d 11 fe             	adc    %r15,%r14
ffffffffc01028fb:	4d 89 f7             	mov    %r14,%r15
ffffffffc01028fe:	49 c1 ff 3f          	sar    $0x3f,%r15
ffffffffc0102902:	49 89 cc             	mov    %rcx,%r12
ffffffffc0102905:	49 c1 fc 3f          	sar    $0x3f,%r12
ffffffffc0102909:	4c 0f af e7          	imul   %rdi,%r12
ffffffffc010290d:	48 89 f8             	mov    %rdi,%rax
ffffffffc0102910:	48 f7 e1             	mul    %rcx
ffffffffc0102913:	49 89 d3             	mov    %rdx,%r11
ffffffffc0102916:	48 89 c7             	mov    %rax,%rdi
ffffffffc0102919:	48 01 df             	add    %rbx,%rdi
ffffffffc010291c:	4d 11 e3             	adc    %r12,%r11
ffffffffc010291f:	4c 89 db             	mov    %r11,%rbx
ffffffffc0102922:	48 c1 fb 3f          	sar    $0x3f,%rbx
ffffffffc0102926:	4d 01 f3             	add    %r14,%r11
ffffffffc0102929:	4c 11 fb             	adc    %r15,%rbx
ffffffffc010292c:	4c 89 d0             	mov    %r10,%rax
ffffffffc010292f:	48 f7 e9             	imul   %rcx
ffffffffc0102932:	4c 01 d8             	add    %r11,%rax
ffffffffc0102935:	48 11 da             	adc    %rbx,%rdx
ffffffffc0102938:	49 89 fb             	mov    %rdi,%r11
ffffffffc010293b:	49 c1 fb 3f          	sar    $0x3f,%r11
ffffffffc010293f:	4c 31 da             	xor    %r11,%rdx
ffffffffc0102942:	49 31 c3             	xor    %rax,%r11
ffffffffc0102945:	49 09 d3             	or     %rdx,%r11
ffffffffc0102948:	0f 95 c0             	setne  %al
ffffffffc010294b:	4d 85 d2             	test   %r10,%r10
ffffffffc010294e:	0f 98 c2             	sets   %dl
ffffffffc0102951:	48 0f ba f9 3f       	btc    $0x3f,%rcx
ffffffffc0102956:	4c 09 c9             	or     %r9,%rcx
ffffffffc0102959:	0f 94 c1             	sete   %cl
ffffffffc010295c:	84 ca                	test   %cl,%dl
ffffffffc010295e:	75 04                	jne    ffffffffc0102964 <__muloti4+0xa3>
ffffffffc0102960:	84 c0                	test   %al,%al
ffffffffc0102962:	74 07                	je     ffffffffc010296b <__muloti4+0xaa>
ffffffffc0102964:	41 c7 00 01 00 00 00 	movl   $0x1,(%r8)
ffffffffc010296b:	48 89 f0             	mov    %rsi,%rax
ffffffffc010296e:	48 89 fa             	mov    %rdi,%rdx
ffffffffc0102971:	5b                   	pop    %rbx
ffffffffc0102972:	41 5c                	pop    %r12
ffffffffc0102974:	41 5e                	pop    %r14
ffffffffc0102976:	41 5f                	pop    %r15
ffffffffc0102978:	c3                   	ret

ffffffffc0102979 <__extendhfsf2>:
ffffffffc0102979:	66 0f c5 c0 00       	pextrw $0x0,%xmm0,%eax
ffffffffc010297e:	89 c1                	mov    %eax,%ecx
ffffffffc0102980:	81 e1 ff 7f 00 00    	and    $0x7fff,%ecx
ffffffffc0102986:	89 ca                	mov    %ecx,%edx
ffffffffc0102988:	81 c2 00 fc ff ff    	add    $0xfffffc00,%edx
ffffffffc010298e:	66 81 fa 00 78       	cmp    $0x7800,%dx
ffffffffc0102993:	73 0e                	jae    ffffffffc01029a3 <__extendhfsf2+0x2a>
ffffffffc0102995:	0f b7 c9             	movzwl %cx,%ecx
ffffffffc0102998:	c1 e1 0d             	shl    $0xd,%ecx
ffffffffc010299b:	81 c1 00 00 00 38    	add    $0x38000000,%ecx
ffffffffc01029a1:	eb 45                	jmp    ffffffffc01029e8 <__extendhfsf2+0x6f>
ffffffffc01029a3:	66 81 f9 00 7c       	cmp    $0x7c00,%cx
ffffffffc01029a8:	72 0e                	jb     ffffffffc01029b8 <__extendhfsf2+0x3f>
ffffffffc01029aa:	0f b7 c9             	movzwl %cx,%ecx
ffffffffc01029ad:	c1 e1 0d             	shl    $0xd,%ecx
ffffffffc01029b0:	81 c9 00 00 80 7f    	or     $0x7f800000,%ecx
ffffffffc01029b6:	eb 30                	jmp    ffffffffc01029e8 <__extendhfsf2+0x6f>
ffffffffc01029b8:	66 85 c9             	test   %cx,%cx
ffffffffc01029bb:	74 29                	je     ffffffffc01029e6 <__extendhfsf2+0x6d>
ffffffffc01029bd:	66 0f bd d1          	bsr    %cx,%dx
ffffffffc01029c1:	83 f2 0f             	xor    $0xf,%edx
ffffffffc01029c4:	83 c2 1b             	add    $0x1b,%edx
ffffffffc01029c7:	83 e2 1f             	and    $0x1f,%edx
ffffffffc01029ca:	0f b7 f1             	movzwl %cx,%esi
ffffffffc01029cd:	8d 4a 0d             	lea    0xd(%rdx),%ecx
ffffffffc01029d0:	d3 e6                	shl    %cl,%esi
ffffffffc01029d2:	81 f6 00 00 80 00    	xor    $0x800000,%esi
ffffffffc01029d8:	c1 e2 17             	shl    $0x17,%edx
ffffffffc01029db:	b9 00 00 80 38       	mov    $0x38800000,%ecx
ffffffffc01029e0:	29 d1                	sub    %edx,%ecx
ffffffffc01029e2:	09 f1                	or     %esi,%ecx
ffffffffc01029e4:	eb 02                	jmp    ffffffffc01029e8 <__extendhfsf2+0x6f>
ffffffffc01029e6:	31 c9                	xor    %ecx,%ecx
ffffffffc01029e8:	25 00 80 00 00       	and    $0x8000,%eax
ffffffffc01029ed:	c1 e0 10             	shl    $0x10,%eax
ffffffffc01029f0:	09 c8                	or     %ecx,%eax
ffffffffc01029f2:	66 0f 6e c0          	movd   %eax,%xmm0
ffffffffc01029f6:	c3                   	ret

ffffffffc01029f7 <__extendhfdf2>:
ffffffffc01029f7:	66 0f c5 c0 00       	pextrw $0x0,%xmm0,%eax
ffffffffc01029fc:	89 c1                	mov    %eax,%ecx
ffffffffc01029fe:	81 e1 ff 7f 00 00    	and    $0x7fff,%ecx
ffffffffc0102a04:	89 ca                	mov    %ecx,%edx
ffffffffc0102a06:	81 c2 00 fc ff ff    	add    $0xfffffc00,%edx
ffffffffc0102a0c:	66 81 fa 00 78       	cmp    $0x7800,%dx
ffffffffc0102a11:	73 16                	jae    ffffffffc0102a29 <__extendhfdf2+0x32>
ffffffffc0102a13:	0f b7 d1             	movzwl %cx,%edx
ffffffffc0102a16:	48 c1 e2 2a          	shl    $0x2a,%rdx
ffffffffc0102a1a:	48 b9 00 00 00 00 00 	movabs $0x3f00000000000000,%rcx
ffffffffc0102a21:	00 00 3f 
ffffffffc0102a24:	48 01 d1             	add    %rdx,%rcx
ffffffffc0102a27:	eb 49                	jmp    ffffffffc0102a72 <__extendhfdf2+0x7b>
ffffffffc0102a29:	66 81 f9 00 7c       	cmp    $0x7c00,%cx
ffffffffc0102a2e:	72 10                	jb     ffffffffc0102a40 <__extendhfdf2+0x49>
ffffffffc0102a30:	0f b7 c9             	movzwl %cx,%ecx
ffffffffc0102a33:	48 81 c9 00 fc 1f 00 	or     $0x1ffc00,%rcx
ffffffffc0102a3a:	48 c1 e1 2a          	shl    $0x2a,%rcx
ffffffffc0102a3e:	eb 32                	jmp    ffffffffc0102a72 <__extendhfdf2+0x7b>
ffffffffc0102a40:	66 85 c9             	test   %cx,%cx
ffffffffc0102a43:	74 2b                	je     ffffffffc0102a70 <__extendhfdf2+0x79>
ffffffffc0102a45:	66 0f bd d1          	bsr    %cx,%dx
ffffffffc0102a49:	83 f2 0f             	xor    $0xf,%edx
ffffffffc0102a4c:	83 c2 1b             	add    $0x1b,%edx
ffffffffc0102a4f:	83 e2 1f             	and    $0x1f,%edx
ffffffffc0102a52:	0f b7 f1             	movzwl %cx,%esi
ffffffffc0102a55:	8d 4a 2a             	lea    0x2a(%rdx),%ecx
ffffffffc0102a58:	48 d3 e6             	shl    %cl,%rsi
ffffffffc0102a5b:	48 0f ba fe 34       	btc    $0x34,%rsi
ffffffffc0102a60:	b9 f1 03 00 00       	mov    $0x3f1,%ecx
ffffffffc0102a65:	29 d1                	sub    %edx,%ecx
ffffffffc0102a67:	48 c1 e1 34          	shl    $0x34,%rcx
ffffffffc0102a6b:	48 09 f1             	or     %rsi,%rcx
ffffffffc0102a6e:	eb 02                	jmp    ffffffffc0102a72 <__extendhfdf2+0x7b>
ffffffffc0102a70:	31 c9                	xor    %ecx,%ecx
ffffffffc0102a72:	25 00 80 00 00       	and    $0x8000,%eax
ffffffffc0102a77:	48 c1 e0 30          	shl    $0x30,%rax
ffffffffc0102a7b:	48 09 c8             	or     %rcx,%rax
ffffffffc0102a7e:	66 48 0f 6e c0       	movq   %rax,%xmm0
ffffffffc0102a83:	c3                   	ret

ffffffffc0102a84 <__extendhftf2>:
ffffffffc0102a84:	41 56                	push   %r14
ffffffffc0102a86:	53                   	push   %rbx
ffffffffc0102a87:	48 83 ec 18          	sub    $0x18,%rsp
ffffffffc0102a8b:	66 0f c5 d8 00       	pextrw $0x0,%xmm0,%ebx
ffffffffc0102a90:	89 d8                	mov    %ebx,%eax
ffffffffc0102a92:	25 ff 7f 00 00       	and    $0x7fff,%eax
ffffffffc0102a97:	89 c1                	mov    %eax,%ecx
ffffffffc0102a99:	81 c1 00 fc ff ff    	add    $0xfffffc00,%ecx
ffffffffc0102a9f:	66 81 f9 00 78       	cmp    $0x7800,%cx
ffffffffc0102aa4:	73 16                	jae    ffffffffc0102abc <__extendhftf2+0x38>
ffffffffc0102aa6:	0f b7 c0             	movzwl %ax,%eax
ffffffffc0102aa9:	48 c1 e0 26          	shl    $0x26,%rax
ffffffffc0102aad:	48 b9 00 00 00 00 00 	movabs $0x3ff0000000000000,%rcx
ffffffffc0102ab4:	00 f0 3f 
ffffffffc0102ab7:	48 01 c1             	add    %rax,%rcx
ffffffffc0102aba:	eb 14                	jmp    ffffffffc0102ad0 <__extendhftf2+0x4c>
ffffffffc0102abc:	66 3d 00 7c          	cmp    $0x7c00,%ax
ffffffffc0102ac0:	72 32                	jb     ffffffffc0102af4 <__extendhftf2+0x70>
ffffffffc0102ac2:	0f b7 c8             	movzwl %ax,%ecx
ffffffffc0102ac5:	48 81 c9 00 fc ff 01 	or     $0x1fffc00,%rcx
ffffffffc0102acc:	48 c1 e1 26          	shl    $0x26,%rcx
ffffffffc0102ad0:	31 c0                	xor    %eax,%eax
ffffffffc0102ad2:	81 e3 00 80 00 00    	and    $0x8000,%ebx
ffffffffc0102ad8:	48 c1 e3 30          	shl    $0x30,%rbx
ffffffffc0102adc:	48 09 cb             	or     %rcx,%rbx
ffffffffc0102adf:	48 89 04 24          	mov    %rax,(%rsp)
ffffffffc0102ae3:	48 89 5c 24 08       	mov    %rbx,0x8(%rsp)
ffffffffc0102ae8:	0f 28 04 24          	movaps (%rsp),%xmm0
ffffffffc0102aec:	48 83 c4 18          	add    $0x18,%rsp
ffffffffc0102af0:	5b                   	pop    %rbx
ffffffffc0102af1:	41 5e                	pop    %r14
ffffffffc0102af3:	c3                   	ret
ffffffffc0102af4:	66 85 c0             	test   %ax,%ax
ffffffffc0102af7:	74 38                	je     ffffffffc0102b31 <__extendhftf2+0xad>
ffffffffc0102af9:	66 44 0f bd f0       	bsr    %ax,%r14w
ffffffffc0102afe:	41 83 f6 0f          	xor    $0xf,%r14d
ffffffffc0102b02:	41 83 c6 1b          	add    $0x1b,%r14d
ffffffffc0102b06:	41 83 e6 1f          	and    $0x1f,%r14d
ffffffffc0102b0a:	0f b7 f8             	movzwl %ax,%edi
ffffffffc0102b0d:	41 8d 46 66          	lea    0x66(%r14),%eax
ffffffffc0102b11:	0f b6 d0             	movzbl %al,%edx
ffffffffc0102b14:	31 f6                	xor    %esi,%esi
ffffffffc0102b16:	e8 4b ee ff ff       	call   ffffffffc0101966 <__ashlti3>
ffffffffc0102b1b:	48 0f ba fa 30       	btc    $0x30,%rdx
ffffffffc0102b20:	b9 f1 3f 00 00       	mov    $0x3ff1,%ecx
ffffffffc0102b25:	44 29 f1             	sub    %r14d,%ecx
ffffffffc0102b28:	48 c1 e1 30          	shl    $0x30,%rcx
ffffffffc0102b2c:	48 09 d1             	or     %rdx,%rcx
ffffffffc0102b2f:	eb a1                	jmp    ffffffffc0102ad2 <__extendhftf2+0x4e>
ffffffffc0102b31:	31 c0                	xor    %eax,%eax
ffffffffc0102b33:	31 c9                	xor    %ecx,%ecx
ffffffffc0102b35:	eb 9b                	jmp    ffffffffc0102ad2 <__extendhftf2+0x4e>

ffffffffc0102b37 <__extendhfxf2>:
ffffffffc0102b37:	66 0f c5 d0 00       	pextrw $0x0,%xmm0,%edx
ffffffffc0102b3c:	89 d1                	mov    %edx,%ecx
ffffffffc0102b3e:	81 e1 ff 7f 00 00    	and    $0x7fff,%ecx
ffffffffc0102b44:	89 c8                	mov    %ecx,%eax
ffffffffc0102b46:	05 00 fc ff ff       	add    $0xfffffc00,%eax
ffffffffc0102b4b:	66 3d 00 78          	cmp    $0x7800,%ax
ffffffffc0102b4f:	73 1a                	jae    ffffffffc0102b6b <__extendhfxf2+0x34>
ffffffffc0102b51:	0f b7 f1             	movzwl %cx,%esi
ffffffffc0102b54:	89 f0                	mov    %esi,%eax
ffffffffc0102b56:	c1 e8 0a             	shr    $0xa,%eax
ffffffffc0102b59:	05 f0 3f 00 00       	add    $0x3ff0,%eax
ffffffffc0102b5e:	48 81 ce 00 fc ff ff 	or     $0xfffffffffffffc00,%rsi
ffffffffc0102b65:	48 c1 e6 35          	shl    $0x35,%rsi
ffffffffc0102b69:	eb 5a                	jmp    ffffffffc0102bc5 <__extendhfxf2+0x8e>
ffffffffc0102b6b:	66 81 f9 00 7c       	cmp    $0x7c00,%cx
ffffffffc0102b70:	72 14                	jb     ffffffffc0102b86 <__extendhfxf2+0x4f>
ffffffffc0102b72:	0f b7 f1             	movzwl %cx,%esi
ffffffffc0102b75:	48 81 ce 00 fc ff ff 	or     $0xfffffffffffffc00,%rsi
ffffffffc0102b7c:	48 c1 e6 35          	shl    $0x35,%rsi
ffffffffc0102b80:	66 b8 ff 7f          	mov    $0x7fff,%ax
ffffffffc0102b84:	eb 3f                	jmp    ffffffffc0102bc5 <__extendhfxf2+0x8e>
ffffffffc0102b86:	66 85 c9             	test   %cx,%cx
ffffffffc0102b89:	74 36                	je     ffffffffc0102bc1 <__extendhfxf2+0x8a>
ffffffffc0102b8b:	66 0f bd c1          	bsr    %cx,%ax
ffffffffc0102b8f:	89 c7                	mov    %eax,%edi
ffffffffc0102b91:	83 f7 0f             	xor    $0xf,%edi
ffffffffc0102b94:	44 0f b7 c1          	movzwl %cx,%r8d
ffffffffc0102b98:	83 c7 1b             	add    $0x1b,%edi
ffffffffc0102b9b:	83 e7 1f             	and    $0x1f,%edi
ffffffffc0102b9e:	8d 4f 35             	lea    0x35(%rdi),%ecx
ffffffffc0102ba1:	4c 89 c6             	mov    %r8,%rsi
ffffffffc0102ba4:	48 d3 e6             	shl    %cl,%rsi
ffffffffc0102ba7:	48 0f ba ee 3f       	bts    $0x3f,%rsi
ffffffffc0102bac:	89 c1                	mov    %eax,%ecx
ffffffffc0102bae:	41 d3 e8             	shr    %cl,%r8d
ffffffffc0102bb1:	41 83 f0 01          	xor    $0x1,%r8d
ffffffffc0102bb5:	b8 f1 3f 00 00       	mov    $0x3ff1,%eax
ffffffffc0102bba:	29 f8                	sub    %edi,%eax
ffffffffc0102bbc:	44 09 c0             	or     %r8d,%eax
ffffffffc0102bbf:	eb 04                	jmp    ffffffffc0102bc5 <__extendhfxf2+0x8e>
ffffffffc0102bc1:	31 c0                	xor    %eax,%eax
ffffffffc0102bc3:	31 f6                	xor    %esi,%esi
ffffffffc0102bc5:	81 e2 00 80 ff ff    	and    $0xffff8000,%edx
ffffffffc0102bcb:	0f b7 c0             	movzwl %ax,%eax
ffffffffc0102bce:	09 d0                	or     %edx,%eax
ffffffffc0102bd0:	48 89 74 24 e8       	mov    %rsi,-0x18(%rsp)
ffffffffc0102bd5:	66 89 44 24 f0       	mov    %ax,-0x10(%rsp)
ffffffffc0102bda:	db 6c 24 e8          	fldt   -0x18(%rsp)
ffffffffc0102bde:	c3                   	ret

ffffffffc0102bdf <__extendsfdf2>:
ffffffffc0102bdf:	66 0f 7e c0          	movd   %xmm0,%eax
ffffffffc0102be3:	25 ff ff ff 7f       	and    $0x7fffffff,%eax
ffffffffc0102be8:	8d 88 00 00 80 ff    	lea    -0x800000(%rax),%ecx
ffffffffc0102bee:	81 f9 00 00 00 7f    	cmp    $0x7f000000,%ecx
ffffffffc0102bf4:	73 15                	jae    ffffffffc0102c0b <__extendsfdf2+0x2c>
ffffffffc0102bf6:	89 c1                	mov    %eax,%ecx
ffffffffc0102bf8:	48 c1 e1 1d          	shl    $0x1d,%rcx
ffffffffc0102bfc:	48 b8 00 00 00 00 00 	movabs $0x3800000000000000,%rax
ffffffffc0102c03:	00 00 38 
ffffffffc0102c06:	48 01 c8             	add    %rcx,%rax
ffffffffc0102c09:	eb 4b                	jmp    ffffffffc0102c56 <__extendsfdf2+0x77>
ffffffffc0102c0b:	3d 00 00 80 7f       	cmp    $0x7f800000,%eax
ffffffffc0102c10:	72 15                	jb     ffffffffc0102c27 <__extendsfdf2+0x48>
ffffffffc0102c12:	89 c1                	mov    %eax,%ecx
ffffffffc0102c14:	48 c1 e1 1d          	shl    $0x1d,%rcx
ffffffffc0102c18:	48 b8 00 00 00 00 00 	movabs $0x7ff0000000000000,%rax
ffffffffc0102c1f:	00 f0 7f 
ffffffffc0102c22:	48 09 c8             	or     %rcx,%rax
ffffffffc0102c25:	eb 2f                	jmp    ffffffffc0102c56 <__extendsfdf2+0x77>
ffffffffc0102c27:	85 c0                	test   %eax,%eax
ffffffffc0102c29:	74 29                	je     ffffffffc0102c54 <__extendsfdf2+0x75>
ffffffffc0102c2b:	0f bd c8             	bsr    %eax,%ecx
ffffffffc0102c2e:	83 f1 1f             	xor    $0x1f,%ecx
ffffffffc0102c31:	8d 51 38             	lea    0x38(%rcx),%edx
ffffffffc0102c34:	83 e2 3f             	and    $0x3f,%edx
ffffffffc0102c37:	89 c6                	mov    %eax,%esi
ffffffffc0102c39:	80 c1 15             	add    $0x15,%cl
ffffffffc0102c3c:	48 d3 e6             	shl    %cl,%rsi
ffffffffc0102c3f:	48 0f ba fe 34       	btc    $0x34,%rsi
ffffffffc0102c44:	b8 81 03 00 00       	mov    $0x381,%eax
ffffffffc0102c49:	29 d0                	sub    %edx,%eax
ffffffffc0102c4b:	48 c1 e0 34          	shl    $0x34,%rax
ffffffffc0102c4f:	48 09 f0             	or     %rsi,%rax
ffffffffc0102c52:	eb 02                	jmp    ffffffffc0102c56 <__extendsfdf2+0x77>
ffffffffc0102c54:	31 c0                	xor    %eax,%eax
ffffffffc0102c56:	0f 50 c8             	movmskps %xmm0,%ecx
ffffffffc0102c59:	48 c1 e1 3f          	shl    $0x3f,%rcx
ffffffffc0102c5d:	48 09 c1             	or     %rax,%rcx
ffffffffc0102c60:	66 48 0f 6e c1       	movq   %rcx,%xmm0
ffffffffc0102c65:	c3                   	ret

ffffffffc0102c66 <__extendsftf2>:
ffffffffc0102c66:	53                   	push   %rbx
ffffffffc0102c67:	48 83 ec 20          	sub    $0x20,%rsp
ffffffffc0102c6b:	66 0f 7e c0          	movd   %xmm0,%eax
ffffffffc0102c6f:	25 ff ff ff 7f       	and    $0x7fffffff,%eax
ffffffffc0102c74:	8d 88 00 00 80 ff    	lea    -0x800000(%rax),%ecx
ffffffffc0102c7a:	81 f9 00 00 00 7f    	cmp    $0x7f000000,%ecx
ffffffffc0102c80:	73 15                	jae    ffffffffc0102c97 <__extendsftf2+0x31>
ffffffffc0102c82:	89 c0                	mov    %eax,%eax
ffffffffc0102c84:	48 c1 e0 19          	shl    $0x19,%rax
ffffffffc0102c88:	48 b9 00 00 00 00 00 	movabs $0x3f80000000000000,%rcx
ffffffffc0102c8f:	00 80 3f 
ffffffffc0102c92:	48 01 c1             	add    %rax,%rcx
ffffffffc0102c95:	eb 1a                	jmp    ffffffffc0102cb1 <__extendsftf2+0x4b>
ffffffffc0102c97:	3d 00 00 80 7f       	cmp    $0x7f800000,%eax
ffffffffc0102c9c:	72 32                	jb     ffffffffc0102cd0 <__extendsftf2+0x6a>
ffffffffc0102c9e:	89 c0                	mov    %eax,%eax
ffffffffc0102ca0:	48 c1 e0 19          	shl    $0x19,%rax
ffffffffc0102ca4:	48 b9 00 00 00 00 00 	movabs $0x7fff000000000000,%rcx
ffffffffc0102cab:	00 ff 7f 
ffffffffc0102cae:	48 09 c1             	or     %rax,%rcx
ffffffffc0102cb1:	31 c0                	xor    %eax,%eax
ffffffffc0102cb3:	0f 50 d0             	movmskps %xmm0,%edx
ffffffffc0102cb6:	48 c1 e2 3f          	shl    $0x3f,%rdx
ffffffffc0102cba:	48 09 ca             	or     %rcx,%rdx
ffffffffc0102cbd:	48 89 04 24          	mov    %rax,(%rsp)
ffffffffc0102cc1:	48 89 54 24 08       	mov    %rdx,0x8(%rsp)
ffffffffc0102cc6:	0f 28 04 24          	movaps (%rsp),%xmm0
ffffffffc0102cca:	48 83 c4 20          	add    $0x20,%rsp
ffffffffc0102cce:	5b                   	pop    %rbx
ffffffffc0102ccf:	c3                   	ret
ffffffffc0102cd0:	85 c0                	test   %eax,%eax
ffffffffc0102cd2:	74 3c                	je     ffffffffc0102d10 <__extendsftf2+0xaa>
ffffffffc0102cd4:	0f bd d8             	bsr    %eax,%ebx
ffffffffc0102cd7:	83 f3 1f             	xor    $0x1f,%ebx
ffffffffc0102cda:	83 c3 38             	add    $0x38,%ebx
ffffffffc0102cdd:	83 e3 3f             	and    $0x3f,%ebx
ffffffffc0102ce0:	89 c7                	mov    %eax,%edi
ffffffffc0102ce2:	8d 43 59             	lea    0x59(%rbx),%eax
ffffffffc0102ce5:	0f b6 d0             	movzbl %al,%edx
ffffffffc0102ce8:	31 f6                	xor    %esi,%esi
ffffffffc0102cea:	66 0f 7f 44 24 10    	movdqa %xmm0,0x10(%rsp)
ffffffffc0102cf0:	e8 71 ec ff ff       	call   ffffffffc0101966 <__ashlti3>
ffffffffc0102cf5:	66 0f 6f 44 24 10    	movdqa 0x10(%rsp),%xmm0
ffffffffc0102cfb:	48 0f ba fa 30       	btc    $0x30,%rdx
ffffffffc0102d00:	b9 81 3f 00 00       	mov    $0x3f81,%ecx
ffffffffc0102d05:	29 d9                	sub    %ebx,%ecx
ffffffffc0102d07:	48 c1 e1 30          	shl    $0x30,%rcx
ffffffffc0102d0b:	48 09 d1             	or     %rdx,%rcx
ffffffffc0102d0e:	eb a3                	jmp    ffffffffc0102cb3 <__extendsftf2+0x4d>
ffffffffc0102d10:	31 c0                	xor    %eax,%eax
ffffffffc0102d12:	31 c9                	xor    %ecx,%ecx
ffffffffc0102d14:	eb 9d                	jmp    ffffffffc0102cb3 <__extendsftf2+0x4d>

ffffffffc0102d16 <__extendsfxf2>:
ffffffffc0102d16:	66 0f 7e c2          	movd   %xmm0,%edx
ffffffffc0102d1a:	81 e2 ff ff ff 7f    	and    $0x7fffffff,%edx
ffffffffc0102d20:	8d 82 00 00 80 ff    	lea    -0x800000(%rdx),%eax
ffffffffc0102d26:	3d 00 00 00 7f       	cmp    $0x7f000000,%eax
ffffffffc0102d2b:	73 17                	jae    ffffffffc0102d44 <__extendsfxf2+0x2e>
ffffffffc0102d2d:	89 d0                	mov    %edx,%eax
ffffffffc0102d2f:	c1 e8 17             	shr    $0x17,%eax
ffffffffc0102d32:	05 80 3f 00 00       	add    $0x3f80,%eax
ffffffffc0102d37:	48 81 ca 00 00 80 ff 	or     $0xffffffffff800000,%rdx
ffffffffc0102d3e:	48 c1 e2 28          	shl    $0x28,%rdx
ffffffffc0102d42:	eb 51                	jmp    ffffffffc0102d95 <__extendsfxf2+0x7f>
ffffffffc0102d44:	81 fa 00 00 80 7f    	cmp    $0x7f800000,%edx
ffffffffc0102d4a:	72 11                	jb     ffffffffc0102d5d <__extendsfxf2+0x47>
ffffffffc0102d4c:	48 81 ca 00 00 80 ff 	or     $0xffffffffff800000,%rdx
ffffffffc0102d53:	48 c1 e2 28          	shl    $0x28,%rdx
ffffffffc0102d57:	66 b8 ff 7f          	mov    $0x7fff,%ax
ffffffffc0102d5b:	eb 38                	jmp    ffffffffc0102d95 <__extendsfxf2+0x7f>
ffffffffc0102d5d:	85 d2                	test   %edx,%edx
ffffffffc0102d5f:	74 30                	je     ffffffffc0102d91 <__extendsfxf2+0x7b>
ffffffffc0102d61:	0f bd c2             	bsr    %edx,%eax
ffffffffc0102d64:	89 c1                	mov    %eax,%ecx
ffffffffc0102d66:	83 f1 1f             	xor    $0x1f,%ecx
ffffffffc0102d69:	8d 71 38             	lea    0x38(%rcx),%esi
ffffffffc0102d6c:	89 d7                	mov    %edx,%edi
ffffffffc0102d6e:	80 c9 20             	or     $0x20,%cl
ffffffffc0102d71:	48 d3 e7             	shl    %cl,%rdi
ffffffffc0102d74:	83 e6 3f             	and    $0x3f,%esi
ffffffffc0102d77:	48 0f ba ef 3f       	bts    $0x3f,%rdi
ffffffffc0102d7c:	89 c1                	mov    %eax,%ecx
ffffffffc0102d7e:	d3 ea                	shr    %cl,%edx
ffffffffc0102d80:	83 f2 01             	xor    $0x1,%edx
ffffffffc0102d83:	b8 81 3f 00 00       	mov    $0x3f81,%eax
ffffffffc0102d88:	29 f0                	sub    %esi,%eax
ffffffffc0102d8a:	09 d0                	or     %edx,%eax
ffffffffc0102d8c:	48 89 fa             	mov    %rdi,%rdx
ffffffffc0102d8f:	eb 04                	jmp    ffffffffc0102d95 <__extendsfxf2+0x7f>
ffffffffc0102d91:	31 c0                	xor    %eax,%eax
ffffffffc0102d93:	31 d2                	xor    %edx,%edx
ffffffffc0102d95:	0f 50 c8             	movmskps %xmm0,%ecx
ffffffffc0102d98:	c1 e1 0f             	shl    $0xf,%ecx
ffffffffc0102d9b:	09 c8                	or     %ecx,%eax
ffffffffc0102d9d:	48 89 54 24 e8       	mov    %rdx,-0x18(%rsp)
ffffffffc0102da2:	66 89 44 24 f0       	mov    %ax,-0x10(%rsp)
ffffffffc0102da7:	db 6c 24 e8          	fldt   -0x18(%rsp)
ffffffffc0102dab:	c3                   	ret

ffffffffc0102dac <__extenddftf2>:
ffffffffc0102dac:	53                   	push   %rbx
ffffffffc0102dad:	48 83 ec 20          	sub    $0x20,%rsp
ffffffffc0102db1:	66 48 0f 7e c7       	movq   %xmm0,%rdi
ffffffffc0102db6:	48 0f ba f7 3f       	btr    $0x3f,%rdi
ffffffffc0102dbb:	48 b8 00 00 00 00 00 	movabs $0xfff0000000000000,%rax
ffffffffc0102dc2:	00 f0 ff 
ffffffffc0102dc5:	48 01 f8             	add    %rdi,%rax
ffffffffc0102dc8:	48 c1 e8 35          	shr    $0x35,%rax
ffffffffc0102dcc:	3d ff 03 00 00       	cmp    $0x3ff,%eax
ffffffffc0102dd1:	73 1a                	jae    ffffffffc0102ded <__extenddftf2+0x41>
ffffffffc0102dd3:	48 89 f8             	mov    %rdi,%rax
ffffffffc0102dd6:	48 c1 e0 3c          	shl    $0x3c,%rax
ffffffffc0102dda:	48 c1 ef 04          	shr    $0x4,%rdi
ffffffffc0102dde:	48 b9 00 00 00 00 00 	movabs $0x3c00000000000000,%rcx
ffffffffc0102de5:	00 00 3c 
ffffffffc0102de8:	48 01 f9             	add    %rdi,%rcx
ffffffffc0102deb:	eb 6c                	jmp    ffffffffc0102e59 <__extenddftf2+0xad>
ffffffffc0102ded:	48 89 f8             	mov    %rdi,%rax
ffffffffc0102df0:	48 c1 e8 34          	shr    $0x34,%rax
ffffffffc0102df4:	3d ff 07 00 00       	cmp    $0x7ff,%eax
ffffffffc0102df9:	72 1a                	jb     ffffffffc0102e15 <__extenddftf2+0x69>
ffffffffc0102dfb:	48 89 f8             	mov    %rdi,%rax
ffffffffc0102dfe:	48 c1 e0 3c          	shl    $0x3c,%rax
ffffffffc0102e02:	48 c1 ef 04          	shr    $0x4,%rdi
ffffffffc0102e06:	48 b9 00 00 00 00 00 	movabs $0x7fff000000000000,%rcx
ffffffffc0102e0d:	00 ff 7f 
ffffffffc0102e10:	48 09 f9             	or     %rdi,%rcx
ffffffffc0102e13:	eb 44                	jmp    ffffffffc0102e59 <__extenddftf2+0xad>
ffffffffc0102e15:	48 85 ff             	test   %rdi,%rdi
ffffffffc0102e18:	74 3b                	je     ffffffffc0102e55 <__extenddftf2+0xa9>
ffffffffc0102e1a:	48 0f bd c7          	bsr    %rdi,%rax
ffffffffc0102e1e:	48 83 f0 3f          	xor    $0x3f,%rax
ffffffffc0102e22:	8d 58 75             	lea    0x75(%rax),%ebx
ffffffffc0102e25:	83 e3 7f             	and    $0x7f,%ebx
ffffffffc0102e28:	04 31                	add    $0x31,%al
ffffffffc0102e2a:	0f b6 d0             	movzbl %al,%edx
ffffffffc0102e2d:	31 f6                	xor    %esi,%esi
ffffffffc0102e2f:	66 0f 7f 44 24 10    	movdqa %xmm0,0x10(%rsp)
ffffffffc0102e35:	e8 2c eb ff ff       	call   ffffffffc0101966 <__ashlti3>
ffffffffc0102e3a:	66 0f 6f 44 24 10    	movdqa 0x10(%rsp),%xmm0
ffffffffc0102e40:	48 0f ba fa 30       	btc    $0x30,%rdx
ffffffffc0102e45:	b9 01 3c 00 00       	mov    $0x3c01,%ecx
ffffffffc0102e4a:	29 d9                	sub    %ebx,%ecx
ffffffffc0102e4c:	48 c1 e1 30          	shl    $0x30,%rcx
ffffffffc0102e50:	48 09 d1             	or     %rdx,%rcx
ffffffffc0102e53:	eb 04                	jmp    ffffffffc0102e59 <__extenddftf2+0xad>
ffffffffc0102e55:	31 c0                	xor    %eax,%eax
ffffffffc0102e57:	31 c9                	xor    %ecx,%ecx
ffffffffc0102e59:	66 0f 50 d0          	movmskpd %xmm0,%edx
ffffffffc0102e5d:	48 c1 e2 3f          	shl    $0x3f,%rdx
ffffffffc0102e61:	48 09 ca             	or     %rcx,%rdx
ffffffffc0102e64:	48 89 04 24          	mov    %rax,(%rsp)
ffffffffc0102e68:	48 89 54 24 08       	mov    %rdx,0x8(%rsp)
ffffffffc0102e6d:	0f 28 04 24          	movaps (%rsp),%xmm0
ffffffffc0102e71:	48 83 c4 20          	add    $0x20,%rsp
ffffffffc0102e75:	5b                   	pop    %rbx
ffffffffc0102e76:	c3                   	ret

ffffffffc0102e77 <__extenddfxf2>:
ffffffffc0102e77:	66 48 0f 7e c2       	movq   %xmm0,%rdx
ffffffffc0102e7c:	48 0f ba f2 3f       	btr    $0x3f,%rdx
ffffffffc0102e81:	48 b8 00 00 00 00 00 	movabs $0xfff0000000000000,%rax
ffffffffc0102e88:	00 f0 ff 
ffffffffc0102e8b:	48 01 d0             	add    %rdx,%rax
ffffffffc0102e8e:	48 c1 e8 35          	shr    $0x35,%rax
ffffffffc0102e92:	3d ff 03 00 00       	cmp    $0x3ff,%eax
ffffffffc0102e97:	73 17                	jae    ffffffffc0102eb0 <__extenddfxf2+0x39>
ffffffffc0102e99:	48 89 d0             	mov    %rdx,%rax
ffffffffc0102e9c:	48 c1 e8 34          	shr    $0x34,%rax
ffffffffc0102ea0:	05 00 3c 00 00       	add    $0x3c00,%eax
ffffffffc0102ea5:	48 c1 e2 0b          	shl    $0xb,%rdx
ffffffffc0102ea9:	48 0f ba ea 3f       	bts    $0x3f,%rdx
ffffffffc0102eae:	eb 58                	jmp    ffffffffc0102f08 <__extenddfxf2+0x91>
ffffffffc0102eb0:	48 89 d0             	mov    %rdx,%rax
ffffffffc0102eb3:	48 c1 e8 34          	shr    $0x34,%rax
ffffffffc0102eb7:	3d ff 07 00 00       	cmp    $0x7ff,%eax
ffffffffc0102ebc:	72 0f                	jb     ffffffffc0102ecd <__extenddfxf2+0x56>
ffffffffc0102ebe:	48 c1 e2 0b          	shl    $0xb,%rdx
ffffffffc0102ec2:	48 0f ba ea 3f       	bts    $0x3f,%rdx
ffffffffc0102ec7:	66 b8 ff 7f          	mov    $0x7fff,%ax
ffffffffc0102ecb:	eb 3b                	jmp    ffffffffc0102f08 <__extenddfxf2+0x91>
ffffffffc0102ecd:	48 85 d2             	test   %rdx,%rdx
ffffffffc0102ed0:	74 32                	je     ffffffffc0102f04 <__extenddfxf2+0x8d>
ffffffffc0102ed2:	48 0f bd c2          	bsr    %rdx,%rax
ffffffffc0102ed6:	48 89 c1             	mov    %rax,%rcx
ffffffffc0102ed9:	48 83 f1 3f          	xor    $0x3f,%rcx
ffffffffc0102edd:	48 89 d6             	mov    %rdx,%rsi
ffffffffc0102ee0:	48 d3 e6             	shl    %cl,%rsi
ffffffffc0102ee3:	8d 79 75             	lea    0x75(%rcx),%edi
ffffffffc0102ee6:	83 e7 7f             	and    $0x7f,%edi
ffffffffc0102ee9:	48 0f ba ee 3f       	bts    $0x3f,%rsi
ffffffffc0102eee:	89 c1                	mov    %eax,%ecx
ffffffffc0102ef0:	48 d3 ea             	shr    %cl,%rdx
ffffffffc0102ef3:	83 f2 01             	xor    $0x1,%edx
ffffffffc0102ef6:	b8 01 3c 00 00       	mov    $0x3c01,%eax
ffffffffc0102efb:	29 f8                	sub    %edi,%eax
ffffffffc0102efd:	09 d0                	or     %edx,%eax
ffffffffc0102eff:	48 89 f2             	mov    %rsi,%rdx
ffffffffc0102f02:	eb 04                	jmp    ffffffffc0102f08 <__extenddfxf2+0x91>
ffffffffc0102f04:	31 c0                	xor    %eax,%eax
ffffffffc0102f06:	31 d2                	xor    %edx,%edx
ffffffffc0102f08:	66 0f 50 c8          	movmskpd %xmm0,%ecx
ffffffffc0102f0c:	c1 e1 0f             	shl    $0xf,%ecx
ffffffffc0102f0f:	09 c8                	or     %ecx,%eax
ffffffffc0102f11:	48 89 54 24 e8       	mov    %rdx,-0x18(%rsp)
ffffffffc0102f16:	66 89 44 24 f0       	mov    %ax,-0x10(%rsp)
ffffffffc0102f1b:	db 6c 24 e8          	fldt   -0x18(%rsp)
ffffffffc0102f1f:	c3                   	ret

ffffffffc0102f20 <__extendxftf2>:
ffffffffc0102f20:	8b 44 24 10          	mov    0x10(%rsp),%eax
ffffffffc0102f24:	48 8b 4c 24 08       	mov    0x8(%rsp),%rcx
ffffffffc0102f29:	89 c7                	mov    %eax,%edi
ffffffffc0102f2b:	66 81 e7 ff 7f       	and    $0x7fff,%di
ffffffffc0102f30:	0f 95 c2             	setne  %dl
ffffffffc0102f33:	48 85 c9             	test   %rcx,%rcx
ffffffffc0102f36:	41 0f 95 c0          	setne  %r8b
ffffffffc0102f3a:	31 f6                	xor    %esi,%esi
ffffffffc0102f3c:	41 08 d0             	or     %dl,%r8b
ffffffffc0102f3f:	ba 00 00 00 00       	mov    $0x0,%edx
ffffffffc0102f44:	74 5f                	je     ffffffffc0102fa5 <__extendxftf2+0x85>
ffffffffc0102f46:	66 81 ff ff 7f       	cmp    $0x7fff,%di
ffffffffc0102f4b:	75 1a                	jne    ffffffffc0102f67 <__extendxftf2+0x47>
ffffffffc0102f4d:	48 89 ce             	mov    %rcx,%rsi
ffffffffc0102f50:	48 c1 e6 31          	shl    $0x31,%rsi
ffffffffc0102f54:	48 c1 e9 0f          	shr    $0xf,%rcx
ffffffffc0102f58:	48 ba 00 00 00 00 00 	movabs $0x7fff000000000000,%rdx
ffffffffc0102f5f:	00 ff 7f 
ffffffffc0102f62:	48 09 ca             	or     %rcx,%rdx
ffffffffc0102f65:	eb 3e                	jmp    ffffffffc0102fa5 <__extendxftf2+0x85>
ffffffffc0102f67:	48 85 c9             	test   %rcx,%rcx
ffffffffc0102f6a:	78 17                	js     ffffffffc0102f83 <__extendxftf2+0x63>
ffffffffc0102f6c:	48 ba 00 80 ff ff ff 	movabs $0x7fffffffffff8000,%rdx
ffffffffc0102f73:	ff ff 7f 
ffffffffc0102f76:	48 21 ca             	and    %rcx,%rdx
ffffffffc0102f79:	48 c1 ea 0f          	shr    $0xf,%rdx
ffffffffc0102f7d:	48 c1 e1 31          	shl    $0x31,%rcx
ffffffffc0102f81:	eb 1f                	jmp    ffffffffc0102fa2 <__extendxftf2+0x82>
ffffffffc0102f83:	48 be 00 80 ff ff ff 	movabs $0x7fffffffffff8000,%rsi
ffffffffc0102f8a:	ff ff 7f 
ffffffffc0102f8d:	48 21 ce             	and    %rcx,%rsi
ffffffffc0102f90:	48 c1 ee 0f          	shr    $0xf,%rsi
ffffffffc0102f94:	48 c1 e1 31          	shl    $0x31,%rcx
ffffffffc0102f98:	0f b7 d7             	movzwl %di,%edx
ffffffffc0102f9b:	48 c1 e2 30          	shl    $0x30,%rdx
ffffffffc0102f9f:	48 09 f2             	or     %rsi,%rdx
ffffffffc0102fa2:	48 89 ce             	mov    %rcx,%rsi
ffffffffc0102fa5:	25 00 80 00 00       	and    $0x8000,%eax
ffffffffc0102faa:	48 c1 e0 30          	shl    $0x30,%rax
ffffffffc0102fae:	48 09 d0             	or     %rdx,%rax
ffffffffc0102fb1:	48 89 74 24 e8       	mov    %rsi,-0x18(%rsp)
ffffffffc0102fb6:	48 89 44 24 f0       	mov    %rax,-0x10(%rsp)
ffffffffc0102fbb:	0f 28 44 24 e8       	movaps -0x18(%rsp),%xmm0
ffffffffc0102fc0:	c3                   	ret

ffffffffc0102fc1 <__gnu_f2h_ieee>:
ffffffffc0102fc1:	66 0f 7e c2          	movd   %xmm0,%edx
ffffffffc0102fc5:	89 d1                	mov    %edx,%ecx
ffffffffc0102fc7:	81 e1 ff ff ff 7f    	and    $0x7fffffff,%ecx
ffffffffc0102fcd:	8d 81 00 00 80 c7    	lea    -0x38800000(%rcx),%eax
ffffffffc0102fd3:	8d b1 00 00 80 b8    	lea    -0x47800000(%rcx),%esi
ffffffffc0102fd9:	39 f0                	cmp    %esi,%eax
ffffffffc0102fdb:	73 25                	jae    ffffffffc0103002 <__gnu_f2h_ieee+0x41>
ffffffffc0102fdd:	89 ce                	mov    %ecx,%esi
ffffffffc0102fdf:	c1 ee 0d             	shr    $0xd,%esi
ffffffffc0102fe2:	89 f0                	mov    %esi,%eax
ffffffffc0102fe4:	05 00 40 00 00       	add    $0x4000,%eax
ffffffffc0102fe9:	81 e1 ff 1f 00 00    	and    $0x1fff,%ecx
ffffffffc0102fef:	81 f9 00 10 00 00    	cmp    $0x1000,%ecx
ffffffffc0102ff5:	76 26                	jbe    ffffffffc010301d <__gnu_f2h_ieee+0x5c>
ffffffffc0102ff7:	8d 86 01 40 00 00    	lea    0x4001(%rsi),%eax
ffffffffc0102ffd:	e9 92 00 00 00       	jmp    ffffffffc0103094 <__gnu_f2h_ieee+0xd3>
ffffffffc0103002:	81 f9 00 00 80 7f    	cmp    $0x7f800000,%ecx
ffffffffc0103008:	76 1c                	jbe    ffffffffc0103026 <__gnu_f2h_ieee+0x65>
ffffffffc010300a:	c1 e9 0d             	shr    $0xd,%ecx
ffffffffc010300d:	81 e1 ff 01 00 00    	and    $0x1ff,%ecx
ffffffffc0103013:	81 c9 00 7e 00 00    	or     $0x7e00,%ecx
ffffffffc0103019:	89 c8                	mov    %ecx,%eax
ffffffffc010301b:	eb 77                	jmp    ffffffffc0103094 <__gnu_f2h_ieee+0xd3>
ffffffffc010301d:	75 75                	jne    ffffffffc0103094 <__gnu_f2h_ieee+0xd3>
ffffffffc010301f:	83 e6 01             	and    $0x1,%esi
ffffffffc0103022:	01 f0                	add    %esi,%eax
ffffffffc0103024:	eb 6e                	jmp    ffffffffc0103094 <__gnu_f2h_ieee+0xd3>
ffffffffc0103026:	66 b8 00 7c          	mov    $0x7c00,%ax
ffffffffc010302a:	81 f9 ff ff 7f 47    	cmp    $0x477fffff,%ecx
ffffffffc0103030:	77 62                	ja     ffffffffc0103094 <__gnu_f2h_ieee+0xd3>
ffffffffc0103032:	c1 e9 17             	shr    $0x17,%ecx
ffffffffc0103035:	6a 71                	push   $0x71
ffffffffc0103037:	58                   	pop    %rax
ffffffffc0103038:	29 c8                	sub    %ecx,%eax
ffffffffc010303a:	83 f8 17             	cmp    $0x17,%eax
ffffffffc010303d:	76 04                	jbe    ffffffffc0103043 <__gnu_f2h_ieee+0x82>
ffffffffc010303f:	31 c0                	xor    %eax,%eax
ffffffffc0103041:	eb 51                	jmp    ffffffffc0103094 <__gnu_f2h_ieee+0xd3>
ffffffffc0103043:	89 d6                	mov    %edx,%esi
ffffffffc0103045:	81 e6 ff ff 7f 00    	and    $0x7fffff,%esi
ffffffffc010304b:	81 ce 00 00 80 00    	or     $0x800000,%esi
ffffffffc0103051:	80 c1 0f             	add    $0xf,%cl
ffffffffc0103054:	89 f7                	mov    %esi,%edi
ffffffffc0103056:	d3 e7                	shl    %cl,%edi
ffffffffc0103058:	45 31 c0             	xor    %r8d,%r8d
ffffffffc010305b:	85 ff                	test   %edi,%edi
ffffffffc010305d:	41 0f 95 c0          	setne  %r8b
ffffffffc0103061:	89 c1                	mov    %eax,%ecx
ffffffffc0103063:	d3 ee                	shr    %cl,%esi
ffffffffc0103065:	89 f0                	mov    %esi,%eax
ffffffffc0103067:	c1 e8 0d             	shr    $0xd,%eax
ffffffffc010306a:	81 e6 ff 1f 00 00    	and    $0x1fff,%esi
ffffffffc0103070:	44 09 c6             	or     %r8d,%esi
ffffffffc0103073:	81 fe 01 10 00 00    	cmp    $0x1001,%esi
ffffffffc0103079:	72 07                	jb     ffffffffc0103082 <__gnu_f2h_ieee+0xc1>
ffffffffc010307b:	0f b7 c0             	movzwl %ax,%eax
ffffffffc010307e:	ff c0                	inc    %eax
ffffffffc0103080:	eb 12                	jmp    ffffffffc0103094 <__gnu_f2h_ieee+0xd3>
ffffffffc0103082:	81 fe 00 10 00 00    	cmp    $0x1000,%esi
ffffffffc0103088:	75 0a                	jne    ffffffffc0103094 <__gnu_f2h_ieee+0xd3>
ffffffffc010308a:	0f b7 c8             	movzwl %ax,%ecx
ffffffffc010308d:	89 c8                	mov    %ecx,%eax
ffffffffc010308f:	83 e0 01             	and    $0x1,%eax
ffffffffc0103092:	01 c8                	add    %ecx,%eax
ffffffffc0103094:	c1 ea 10             	shr    $0x10,%edx
ffffffffc0103097:	81 e2 00 80 00 00    	and    $0x8000,%edx
ffffffffc010309d:	09 d0                	or     %edx,%eax
ffffffffc010309f:	66 0f c4 c0 00       	pinsrw $0x0,%eax,%xmm0
ffffffffc01030a4:	c3                   	ret

ffffffffc01030a5 <__truncdfhf2>:
ffffffffc01030a5:	66 48 0f 7e c2       	movq   %xmm0,%rdx
ffffffffc01030aa:	48 89 d1             	mov    %rdx,%rcx
ffffffffc01030ad:	48 0f ba f1 3f       	btr    $0x3f,%rcx
ffffffffc01030b2:	48 b8 00 00 00 00 00 	movabs $0xc0f0000000000000,%rax
ffffffffc01030b9:	00 f0 c0 
ffffffffc01030bc:	48 01 c8             	add    %rcx,%rax
ffffffffc01030bf:	48 be 00 00 00 00 00 	movabs $0xbf10000000000000,%rsi
ffffffffc01030c6:	00 10 bf 
ffffffffc01030c9:	48 01 ce             	add    %rcx,%rsi
ffffffffc01030cc:	48 39 f0             	cmp    %rsi,%rax
ffffffffc01030cf:	73 35                	jae    ffffffffc0103106 <__truncdfhf2+0x61>
ffffffffc01030d1:	48 bf 00 00 00 00 00 	movabs $0x20000000000,%rdi
ffffffffc01030d8:	02 00 00 
ffffffffc01030db:	48 89 ce             	mov    %rcx,%rsi
ffffffffc01030de:	48 c1 ee 2a          	shr    $0x2a,%rsi
ffffffffc01030e2:	89 f0                	mov    %esi,%eax
ffffffffc01030e4:	05 00 40 00 00       	add    $0x4000,%eax
ffffffffc01030e9:	49 b8 ff ff ff ff ff 	movabs $0x3ffffffffff,%r8
ffffffffc01030f0:	03 00 00 
ffffffffc01030f3:	49 21 c8             	and    %rcx,%r8
ffffffffc01030f6:	49 39 f8             	cmp    %rdi,%r8
ffffffffc01030f9:	76 31                	jbe    ffffffffc010312c <__truncdfhf2+0x87>
ffffffffc01030fb:	8d 86 01 40 00 00    	lea    0x4001(%rsi),%eax
ffffffffc0103101:	e9 bd 00 00 00       	jmp    ffffffffc01031c3 <__truncdfhf2+0x11e>
ffffffffc0103106:	48 b8 00 00 00 00 00 	movabs $0x7ff0000000000000,%rax
ffffffffc010310d:	00 f0 7f 
ffffffffc0103110:	48 39 c1             	cmp    %rax,%rcx
ffffffffc0103113:	76 27                	jbe    ffffffffc010313c <__truncdfhf2+0x97>
ffffffffc0103115:	48 c1 e9 2a          	shr    $0x2a,%rcx
ffffffffc0103119:	81 e1 ff 01 00 00    	and    $0x1ff,%ecx
ffffffffc010311f:	81 c9 00 7e 00 00    	or     $0x7e00,%ecx
ffffffffc0103125:	89 c8                	mov    %ecx,%eax
ffffffffc0103127:	e9 97 00 00 00       	jmp    ffffffffc01031c3 <__truncdfhf2+0x11e>
ffffffffc010312c:	0f 85 91 00 00 00    	jne    ffffffffc01031c3 <__truncdfhf2+0x11e>
ffffffffc0103132:	83 e6 01             	and    $0x1,%esi
ffffffffc0103135:	01 f0                	add    %esi,%eax
ffffffffc0103137:	e9 87 00 00 00       	jmp    ffffffffc01031c3 <__truncdfhf2+0x11e>
ffffffffc010313c:	48 c1 e9 34          	shr    $0x34,%rcx
ffffffffc0103140:	66 b8 00 7c          	mov    $0x7c00,%ax
ffffffffc0103144:	81 f9 0e 04 00 00    	cmp    $0x40e,%ecx
ffffffffc010314a:	77 77                	ja     ffffffffc01031c3 <__truncdfhf2+0x11e>
ffffffffc010314c:	b8 f1 03 00 00       	mov    $0x3f1,%eax
ffffffffc0103151:	29 c8                	sub    %ecx,%eax
ffffffffc0103153:	83 f8 34             	cmp    $0x34,%eax
ffffffffc0103156:	76 04                	jbe    ffffffffc010315c <__truncdfhf2+0xb7>
ffffffffc0103158:	31 c0                	xor    %eax,%eax
ffffffffc010315a:	eb 67                	jmp    ffffffffc01031c3 <__truncdfhf2+0x11e>
ffffffffc010315c:	48 be ff ff ff ff ff 	movabs $0xfffffffffffff,%rsi
ffffffffc0103163:	ff 0f 00 
ffffffffc0103166:	48 89 d7             	mov    %rdx,%rdi
ffffffffc0103169:	48 21 f7             	and    %rsi,%rdi
ffffffffc010316c:	48 01 fe             	add    %rdi,%rsi
ffffffffc010316f:	48 ff c6             	inc    %rsi
ffffffffc0103172:	80 c1 0f             	add    $0xf,%cl
ffffffffc0103175:	48 89 f7             	mov    %rsi,%rdi
ffffffffc0103178:	48 d3 e7             	shl    %cl,%rdi
ffffffffc010317b:	45 31 c0             	xor    %r8d,%r8d
ffffffffc010317e:	48 85 ff             	test   %rdi,%rdi
ffffffffc0103181:	41 0f 95 c0          	setne  %r8b
ffffffffc0103185:	89 c1                	mov    %eax,%ecx
ffffffffc0103187:	48 d3 ee             	shr    %cl,%rsi
ffffffffc010318a:	48 b9 00 00 00 00 00 	movabs $0x20000000000,%rcx
ffffffffc0103191:	02 00 00 
ffffffffc0103194:	48 bf ff ff ff ff ff 	movabs $0x3ffffffffff,%rdi
ffffffffc010319b:	03 00 00 
ffffffffc010319e:	48 21 f7             	and    %rsi,%rdi
ffffffffc01031a1:	48 89 f0             	mov    %rsi,%rax
ffffffffc01031a4:	48 c1 e8 2a          	shr    $0x2a,%rax
ffffffffc01031a8:	4c 09 c7             	or     %r8,%rdi
ffffffffc01031ab:	48 39 cf             	cmp    %rcx,%rdi
ffffffffc01031ae:	76 07                	jbe    ffffffffc01031b7 <__truncdfhf2+0x112>
ffffffffc01031b0:	0f b7 c0             	movzwl %ax,%eax
ffffffffc01031b3:	ff c0                	inc    %eax
ffffffffc01031b5:	eb 0c                	jmp    ffffffffc01031c3 <__truncdfhf2+0x11e>
ffffffffc01031b7:	75 0a                	jne    ffffffffc01031c3 <__truncdfhf2+0x11e>
ffffffffc01031b9:	0f b7 c8             	movzwl %ax,%ecx
ffffffffc01031bc:	89 c8                	mov    %ecx,%eax
ffffffffc01031be:	83 e0 01             	and    $0x1,%eax
ffffffffc01031c1:	01 c8                	add    %ecx,%eax
ffffffffc01031c3:	48 c1 ea 30          	shr    $0x30,%rdx
ffffffffc01031c7:	81 e2 00 80 00 00    	and    $0x8000,%edx
ffffffffc01031cd:	09 d0                	or     %edx,%eax
ffffffffc01031cf:	66 0f c4 c0 00       	pinsrw $0x0,%eax,%xmm0
ffffffffc01031d4:	c3                   	ret

ffffffffc01031d5 <__truncdfsf2>:
ffffffffc01031d5:	66 48 0f 7e c2       	movq   %xmm0,%rdx
ffffffffc01031da:	48 89 d1             	mov    %rdx,%rcx
ffffffffc01031dd:	48 0f ba f1 3f       	btr    $0x3f,%rcx
ffffffffc01031e2:	48 b8 00 00 00 00 00 	movabs $0xc7f0000000000000,%rax
ffffffffc01031e9:	00 f0 c7 
ffffffffc01031ec:	48 01 c8             	add    %rcx,%rax
ffffffffc01031ef:	48 be 00 00 00 00 00 	movabs $0xb810000000000000,%rsi
ffffffffc01031f6:	00 10 b8 
ffffffffc01031f9:	48 01 ce             	add    %rcx,%rsi
ffffffffc01031fc:	48 39 f0             	cmp    %rsi,%rax
ffffffffc01031ff:	73 22                	jae    ffffffffc0103223 <__truncdfsf2+0x4e>
ffffffffc0103201:	48 89 c8             	mov    %rcx,%rax
ffffffffc0103204:	48 c1 e8 1d          	shr    $0x1d,%rax
ffffffffc0103208:	81 e1 ff ff ff 1f    	and    $0x1fffffff,%ecx
ffffffffc010320e:	48 81 f9 00 00 00 10 	cmp    $0x10000000,%rcx
ffffffffc0103215:	76 32                	jbe    ffffffffc0103249 <__truncdfsf2+0x74>
ffffffffc0103217:	05 01 00 00 40       	add    $0x40000001,%eax
ffffffffc010321c:	89 c6                	mov    %eax,%esi
ffffffffc010321e:	e9 b9 00 00 00       	jmp    ffffffffc01032dc <__truncdfsf2+0x107>
ffffffffc0103223:	48 b8 00 00 00 00 00 	movabs $0x7ff0000000000000,%rax
ffffffffc010322a:	00 f0 7f 
ffffffffc010322d:	48 39 c1             	cmp    %rax,%rcx
ffffffffc0103230:	76 30                	jbe    ffffffffc0103262 <__truncdfsf2+0x8d>
ffffffffc0103232:	48 c1 e9 1d          	shr    $0x1d,%rcx
ffffffffc0103236:	81 e1 ff ff 3f 00    	and    $0x3fffff,%ecx
ffffffffc010323c:	81 c9 00 00 c0 7f    	or     $0x7fc00000,%ecx
ffffffffc0103242:	89 ce                	mov    %ecx,%esi
ffffffffc0103244:	e9 93 00 00 00       	jmp    ffffffffc01032dc <__truncdfsf2+0x107>
ffffffffc0103249:	8d b0 00 00 00 40    	lea    0x40000000(%rax),%esi
ffffffffc010324f:	81 f9 00 00 00 10    	cmp    $0x10000000,%ecx
ffffffffc0103255:	0f 85 81 00 00 00    	jne    ffffffffc01032dc <__truncdfsf2+0x107>
ffffffffc010325b:	83 e0 01             	and    $0x1,%eax
ffffffffc010325e:	01 c6                	add    %eax,%esi
ffffffffc0103260:	eb 7a                	jmp    ffffffffc01032dc <__truncdfsf2+0x107>
ffffffffc0103262:	48 c1 e9 34          	shr    $0x34,%rcx
ffffffffc0103266:	be 00 00 80 7f       	mov    $0x7f800000,%esi
ffffffffc010326b:	81 f9 7e 04 00 00    	cmp    $0x47e,%ecx
ffffffffc0103271:	77 69                	ja     ffffffffc01032dc <__truncdfsf2+0x107>
ffffffffc0103273:	b8 81 03 00 00       	mov    $0x381,%eax
ffffffffc0103278:	29 c8                	sub    %ecx,%eax
ffffffffc010327a:	31 f6                	xor    %esi,%esi
ffffffffc010327c:	83 f8 34             	cmp    $0x34,%eax
ffffffffc010327f:	77 5b                	ja     ffffffffc01032dc <__truncdfsf2+0x107>
ffffffffc0103281:	48 be ff ff ff ff ff 	movabs $0xfffffffffffff,%rsi
ffffffffc0103288:	ff 0f 00 
ffffffffc010328b:	48 89 d7             	mov    %rdx,%rdi
ffffffffc010328e:	48 21 f7             	and    %rsi,%rdi
ffffffffc0103291:	48 01 f7             	add    %rsi,%rdi
ffffffffc0103294:	48 ff c7             	inc    %rdi
ffffffffc0103297:	fe c9                	dec    %cl
ffffffffc0103299:	48 89 fe             	mov    %rdi,%rsi
ffffffffc010329c:	48 d3 e6             	shl    %cl,%rsi
ffffffffc010329f:	45 31 c0             	xor    %r8d,%r8d
ffffffffc01032a2:	48 85 f6             	test   %rsi,%rsi
ffffffffc01032a5:	41 0f 95 c0          	setne  %r8b
ffffffffc01032a9:	89 c1                	mov    %eax,%ecx
ffffffffc01032ab:	48 d3 ef             	shr    %cl,%rdi
ffffffffc01032ae:	48 89 fe             	mov    %rdi,%rsi
ffffffffc01032b1:	48 c1 ee 1d          	shr    $0x1d,%rsi
ffffffffc01032b5:	81 e7 ff ff ff 1f    	and    $0x1fffffff,%edi
ffffffffc01032bb:	4c 09 c7             	or     %r8,%rdi
ffffffffc01032be:	48 81 ff 01 00 00 10 	cmp    $0x10000001,%rdi
ffffffffc01032c5:	72 04                	jb     ffffffffc01032cb <__truncdfsf2+0xf6>
ffffffffc01032c7:	ff c6                	inc    %esi
ffffffffc01032c9:	eb 11                	jmp    ffffffffc01032dc <__truncdfsf2+0x107>
ffffffffc01032cb:	81 ff 00 00 00 10    	cmp    $0x10000000,%edi
ffffffffc01032d1:	75 09                	jne    ffffffffc01032dc <__truncdfsf2+0x107>
ffffffffc01032d3:	89 f0                	mov    %esi,%eax
ffffffffc01032d5:	83 e0 01             	and    $0x1,%eax
ffffffffc01032d8:	01 f0                	add    %esi,%eax
ffffffffc01032da:	89 c6                	mov    %eax,%esi
ffffffffc01032dc:	48 c1 ea 20          	shr    $0x20,%rdx
ffffffffc01032e0:	81 e2 00 00 00 80    	and    $0x80000000,%edx
ffffffffc01032e6:	09 f2                	or     %esi,%edx
ffffffffc01032e8:	66 0f 6e c2          	movd   %edx,%xmm0
ffffffffc01032ec:	c3                   	ret

ffffffffc01032ed <__truncxfhf2>:
ffffffffc01032ed:	0f b7 44 24 10       	movzwl 0x10(%rsp),%eax
ffffffffc01032f2:	48 8b 74 24 08       	mov    0x8(%rsp),%rsi
ffffffffc01032f7:	89 c7                	mov    %eax,%edi
ffffffffc01032f9:	81 e7 ff 7f 00 00    	and    $0x7fff,%edi
ffffffffc01032ff:	48 89 f2             	mov    %rsi,%rdx
ffffffffc0103302:	48 0f ba f2 3f       	btr    $0x3f,%rdx
ffffffffc0103307:	8d 8f 0f c0 ff ff    	lea    -0x3ff1(%rdi),%ecx
ffffffffc010330d:	44 8d 87 f1 bf ff ff 	lea    -0x400f(%rdi),%r8d
ffffffffc0103314:	66 44 39 c1          	cmp    %r8w,%cx
ffffffffc0103318:	73 32                	jae    ffffffffc010334c <__truncxfhf2+0x5f>
ffffffffc010331a:	48 bf 00 00 00 00 00 	movabs $0x10000000000000,%rdi
ffffffffc0103321:	00 10 00 
ffffffffc0103324:	89 c1                	mov    %eax,%ecx
ffffffffc0103326:	c1 e1 0a             	shl    $0xa,%ecx
ffffffffc0103329:	48 c1 ea 35          	shr    $0x35,%rdx
ffffffffc010332d:	49 b8 ff ff ff ff ff 	movabs $0x1fffffffffffff,%r8
ffffffffc0103334:	ff 1f 00 
ffffffffc0103337:	4c 21 c6             	and    %r8,%rsi
ffffffffc010333a:	48 39 fe             	cmp    %rdi,%rsi
ffffffffc010333d:	76 2f                	jbe    ffffffffc010336e <__truncxfhf2+0x81>
ffffffffc010333f:	09 d1                	or     %edx,%ecx
ffffffffc0103341:	81 c1 01 40 00 00    	add    $0x4001,%ecx
ffffffffc0103347:	e9 9a 00 00 00       	jmp    ffffffffc01033e6 <__truncxfhf2+0xf9>
ffffffffc010334c:	66 81 ff ff 7f       	cmp    $0x7fff,%di
ffffffffc0103351:	0f 94 c1             	sete   %cl
ffffffffc0103354:	48 85 d2             	test   %rdx,%rdx
ffffffffc0103357:	41 0f 95 c0          	setne  %r8b
ffffffffc010335b:	41 84 c8             	test   %cl,%r8b
ffffffffc010335e:	74 21                	je     ffffffffc0103381 <__truncxfhf2+0x94>
ffffffffc0103360:	48 c1 ee 35          	shr    $0x35,%rsi
ffffffffc0103364:	81 ce 00 7e 00 00    	or     $0x7e00,%esi
ffffffffc010336a:	89 f1                	mov    %esi,%ecx
ffffffffc010336c:	eb 78                	jmp    ffffffffc01033e6 <__truncxfhf2+0xf9>
ffffffffc010336e:	8d 8c 11 00 40 00 00 	lea    0x4000(%rcx,%rdx,1),%ecx
ffffffffc0103375:	75 6f                	jne    ffffffffc01033e6 <__truncxfhf2+0xf9>
ffffffffc0103377:	0f b7 d2             	movzwl %dx,%edx
ffffffffc010337a:	83 e2 01             	and    $0x1,%edx
ffffffffc010337d:	01 d1                	add    %edx,%ecx
ffffffffc010337f:	eb 65                	jmp    ffffffffc01033e6 <__truncxfhf2+0xf9>
ffffffffc0103381:	66 b9 00 7c          	mov    $0x7c00,%cx
ffffffffc0103385:	66 81 ff 0e 40       	cmp    $0x400e,%di
ffffffffc010338a:	77 5a                	ja     ffffffffc01033e6 <__truncxfhf2+0xf9>
ffffffffc010338c:	66 81 ff b1 3f       	cmp    $0x3fb1,%di
ffffffffc0103391:	73 04                	jae    ffffffffc0103397 <__truncxfhf2+0xaa>
ffffffffc0103393:	31 c9                	xor    %ecx,%ecx
ffffffffc0103395:	eb 4f                	jmp    ffffffffc01033e6 <__truncxfhf2+0xf9>
ffffffffc0103397:	b1 30                	mov    $0x30,%cl
ffffffffc0103399:	28 c1                	sub    %al,%cl
ffffffffc010339b:	48 89 d6             	mov    %rdx,%rsi
ffffffffc010339e:	48 d3 e6             	shl    %cl,%rsi
ffffffffc01033a1:	31 ff                	xor    %edi,%edi
ffffffffc01033a3:	48 85 f6             	test   %rsi,%rsi
ffffffffc01033a6:	40 0f 95 c7          	setne  %dil
ffffffffc01033aa:	48 d3 ea             	shr    %cl,%rdx
ffffffffc01033ad:	48 be 00 00 00 00 00 	movabs $0x10000000000000,%rsi
ffffffffc01033b4:	00 10 00 
ffffffffc01033b7:	48 89 d1             	mov    %rdx,%rcx
ffffffffc01033ba:	48 c1 e9 35          	shr    $0x35,%rcx
ffffffffc01033be:	49 b8 ff ff ff ff ff 	movabs $0x1fffffffffffff,%r8
ffffffffc01033c5:	ff 1f 00 
ffffffffc01033c8:	49 21 d0             	and    %rdx,%r8
ffffffffc01033cb:	49 09 f8             	or     %rdi,%r8
ffffffffc01033ce:	49 39 f0             	cmp    %rsi,%r8
ffffffffc01033d1:	76 07                	jbe    ffffffffc01033da <__truncxfhf2+0xed>
ffffffffc01033d3:	0f b7 c9             	movzwl %cx,%ecx
ffffffffc01033d6:	ff c1                	inc    %ecx
ffffffffc01033d8:	eb 0c                	jmp    ffffffffc01033e6 <__truncxfhf2+0xf9>
ffffffffc01033da:	75 0a                	jne    ffffffffc01033e6 <__truncxfhf2+0xf9>
ffffffffc01033dc:	0f b7 d1             	movzwl %cx,%edx
ffffffffc01033df:	89 d1                	mov    %edx,%ecx
ffffffffc01033e1:	83 e1 01             	and    $0x1,%ecx
ffffffffc01033e4:	eb 97                	jmp    ffffffffc010337d <__truncxfhf2+0x90>
ffffffffc01033e6:	25 00 80 ff ff       	and    $0xffff8000,%eax
ffffffffc01033eb:	09 c1                	or     %eax,%ecx
ffffffffc01033ed:	66 0f c4 c1 00       	pinsrw $0x0,%ecx,%xmm0
ffffffffc01033f2:	c3                   	ret

ffffffffc01033f3 <__truncxfsf2>:
ffffffffc01033f3:	0f b7 44 24 10       	movzwl 0x10(%rsp),%eax
ffffffffc01033f8:	48 8b 74 24 08       	mov    0x8(%rsp),%rsi
ffffffffc01033fd:	89 c7                	mov    %eax,%edi
ffffffffc01033ff:	81 e7 ff 7f 00 00    	and    $0x7fff,%edi
ffffffffc0103405:	48 89 f2             	mov    %rsi,%rdx
ffffffffc0103408:	48 0f ba f2 3f       	btr    $0x3f,%rdx
ffffffffc010340d:	8d 8f 7f c0 ff ff    	lea    -0x3f81(%rdi),%ecx
ffffffffc0103413:	44 8d 87 81 bf ff ff 	lea    -0x407f(%rdi),%r8d
ffffffffc010341a:	66 44 39 c1          	cmp    %r8w,%cx
ffffffffc010341e:	73 32                	jae    ffffffffc0103452 <__truncxfsf2+0x5f>
ffffffffc0103420:	48 bf 00 00 00 00 80 	movabs $0x8000000000,%rdi
ffffffffc0103427:	00 00 00 
ffffffffc010342a:	89 c1                	mov    %eax,%ecx
ffffffffc010342c:	c1 e1 17             	shl    $0x17,%ecx
ffffffffc010342f:	48 c1 ea 28          	shr    $0x28,%rdx
ffffffffc0103433:	49 b8 ff ff ff ff ff 	movabs $0xffffffffff,%r8
ffffffffc010343a:	00 00 00 
ffffffffc010343d:	4c 21 c6             	and    %r8,%rsi
ffffffffc0103440:	48 39 fe             	cmp    %rdi,%rsi
ffffffffc0103443:	76 2f                	jbe    ffffffffc0103474 <__truncxfsf2+0x81>
ffffffffc0103445:	09 d1                	or     %edx,%ecx
ffffffffc0103447:	81 c1 01 00 00 40    	add    $0x40000001,%ecx
ffffffffc010344d:	e9 92 00 00 00       	jmp    ffffffffc01034e4 <__truncxfsf2+0xf1>
ffffffffc0103452:	66 81 ff ff 7f       	cmp    $0x7fff,%di
ffffffffc0103457:	0f 94 c1             	sete   %cl
ffffffffc010345a:	48 85 d2             	test   %rdx,%rdx
ffffffffc010345d:	41 0f 95 c0          	setne  %r8b
ffffffffc0103461:	41 84 c8             	test   %cl,%r8b
ffffffffc0103464:	74 1e                	je     ffffffffc0103484 <__truncxfsf2+0x91>
ffffffffc0103466:	48 c1 ee 28          	shr    $0x28,%rsi
ffffffffc010346a:	81 ce 00 00 c0 7f    	or     $0x7fc00000,%esi
ffffffffc0103470:	89 f1                	mov    %esi,%ecx
ffffffffc0103472:	eb 70                	jmp    ffffffffc01034e4 <__truncxfsf2+0xf1>
ffffffffc0103474:	8d 8c 11 00 00 00 40 	lea    0x40000000(%rcx,%rdx,1),%ecx
ffffffffc010347b:	75 67                	jne    ffffffffc01034e4 <__truncxfsf2+0xf1>
ffffffffc010347d:	83 e2 01             	and    $0x1,%edx
ffffffffc0103480:	01 d1                	add    %edx,%ecx
ffffffffc0103482:	eb 60                	jmp    ffffffffc01034e4 <__truncxfsf2+0xf1>
ffffffffc0103484:	b9 00 00 80 7f       	mov    $0x7f800000,%ecx
ffffffffc0103489:	66 81 ff 7e 40       	cmp    $0x407e,%di
ffffffffc010348e:	77 54                	ja     ffffffffc01034e4 <__truncxfsf2+0xf1>
ffffffffc0103490:	31 c9                	xor    %ecx,%ecx
ffffffffc0103492:	66 81 ff 41 3f       	cmp    $0x3f41,%di
ffffffffc0103497:	72 4b                	jb     ffffffffc01034e4 <__truncxfsf2+0xf1>
ffffffffc0103499:	89 c1                	mov    %eax,%ecx
ffffffffc010349b:	f6 d9                	neg    %cl
ffffffffc010349d:	48 89 d6             	mov    %rdx,%rsi
ffffffffc01034a0:	48 d3 e6             	shl    %cl,%rsi
ffffffffc01034a3:	31 ff                	xor    %edi,%edi
ffffffffc01034a5:	48 85 f6             	test   %rsi,%rsi
ffffffffc01034a8:	40 0f 95 c7          	setne  %dil
ffffffffc01034ac:	48 d3 ea             	shr    %cl,%rdx
ffffffffc01034af:	48 be 00 00 00 00 80 	movabs $0x8000000000,%rsi
ffffffffc01034b6:	00 00 00 
ffffffffc01034b9:	48 89 d1             	mov    %rdx,%rcx
ffffffffc01034bc:	48 c1 e9 28          	shr    $0x28,%rcx
ffffffffc01034c0:	49 b8 ff ff ff ff ff 	movabs $0xffffffffff,%r8
ffffffffc01034c7:	00 00 00 
ffffffffc01034ca:	49 21 d0             	and    %rdx,%r8
ffffffffc01034cd:	49 09 f8             	or     %rdi,%r8
ffffffffc01034d0:	49 39 f0             	cmp    %rsi,%r8
ffffffffc01034d3:	76 04                	jbe    ffffffffc01034d9 <__truncxfsf2+0xe6>
ffffffffc01034d5:	ff c1                	inc    %ecx
ffffffffc01034d7:	eb 0b                	jmp    ffffffffc01034e4 <__truncxfsf2+0xf1>
ffffffffc01034d9:	75 09                	jne    ffffffffc01034e4 <__truncxfsf2+0xf1>
ffffffffc01034db:	89 ca                	mov    %ecx,%edx
ffffffffc01034dd:	83 e2 01             	and    $0x1,%edx
ffffffffc01034e0:	01 ca                	add    %ecx,%edx
ffffffffc01034e2:	89 d1                	mov    %edx,%ecx
ffffffffc01034e4:	25 00 80 00 00       	and    $0x8000,%eax
ffffffffc01034e9:	c1 e0 10             	shl    $0x10,%eax
ffffffffc01034ec:	09 c8                	or     %ecx,%eax
ffffffffc01034ee:	66 0f 6e c0          	movd   %eax,%xmm0
ffffffffc01034f2:	c3                   	ret

ffffffffc01034f3 <__truncxfdf2>:
ffffffffc01034f3:	0f b7 44 24 10       	movzwl 0x10(%rsp),%eax
ffffffffc01034f8:	48 8b 74 24 08       	mov    0x8(%rsp),%rsi
ffffffffc01034fd:	89 c1                	mov    %eax,%ecx
ffffffffc01034ff:	81 e1 ff 7f 00 00    	and    $0x7fff,%ecx
ffffffffc0103505:	48 89 f2             	mov    %rsi,%rdx
ffffffffc0103508:	48 0f ba f2 3f       	btr    $0x3f,%rdx
ffffffffc010350d:	8d b9 ff c3 ff ff    	lea    -0x3c01(%rcx),%edi
ffffffffc0103513:	44 8d 81 01 bc ff ff 	lea    -0x43ff(%rcx),%r8d
ffffffffc010351a:	66 44 39 c7          	cmp    %r8w,%di
ffffffffc010351e:	73 32                	jae    ffffffffc0103552 <__truncxfdf2+0x5f>
ffffffffc0103520:	48 bf 00 00 00 00 00 	movabs $0x4000000000000000,%rdi
ffffffffc0103527:	00 00 40 
ffffffffc010352a:	48 89 c1             	mov    %rax,%rcx
ffffffffc010352d:	48 c1 e1 34          	shl    $0x34,%rcx
ffffffffc0103531:	48 c1 ea 0b          	shr    $0xb,%rdx
ffffffffc0103535:	48 09 d1             	or     %rdx,%rcx
ffffffffc0103538:	81 e6 ff 07 00 00    	and    $0x7ff,%esi
ffffffffc010353e:	48 81 fe 00 04 00 00 	cmp    $0x400,%rsi
ffffffffc0103545:	76 33                	jbe    ffffffffc010357a <__truncxfdf2+0x87>
ffffffffc0103547:	48 01 f9             	add    %rdi,%rcx
ffffffffc010354a:	48 ff c1             	inc    %rcx
ffffffffc010354d:	e9 99 00 00 00       	jmp    ffffffffc01035eb <__truncxfdf2+0xf8>
ffffffffc0103552:	66 81 f9 ff 7f       	cmp    $0x7fff,%cx
ffffffffc0103557:	40 0f 94 c7          	sete   %dil
ffffffffc010355b:	48 85 d2             	test   %rdx,%rdx
ffffffffc010355e:	41 0f 95 c0          	setne  %r8b
ffffffffc0103562:	41 84 f8             	test   %dil,%r8b
ffffffffc0103565:	74 26                	je     ffffffffc010358d <__truncxfdf2+0x9a>
ffffffffc0103567:	48 c1 ee 0b          	shr    $0xb,%rsi
ffffffffc010356b:	48 b9 00 00 00 00 00 	movabs $0x7ff8000000000000,%rcx
ffffffffc0103572:	00 f8 7f 
ffffffffc0103575:	48 09 f1             	or     %rsi,%rcx
ffffffffc0103578:	eb 71                	jmp    ffffffffc01035eb <__truncxfdf2+0xf8>
ffffffffc010357a:	48 01 f9             	add    %rdi,%rcx
ffffffffc010357d:	81 fe 00 04 00 00    	cmp    $0x400,%esi
ffffffffc0103583:	75 66                	jne    ffffffffc01035eb <__truncxfdf2+0xf8>
ffffffffc0103585:	83 e2 01             	and    $0x1,%edx
ffffffffc0103588:	48 01 d1             	add    %rdx,%rcx
ffffffffc010358b:	eb 5e                	jmp    ffffffffc01035eb <__truncxfdf2+0xf8>
ffffffffc010358d:	66 81 f9 fe 43       	cmp    $0x43fe,%cx
ffffffffc0103592:	76 0c                	jbe    ffffffffc01035a0 <__truncxfdf2+0xad>
ffffffffc0103594:	48 b9 00 00 00 00 00 	movabs $0x7ff0000000000000,%rcx
ffffffffc010359b:	00 f0 7f 
ffffffffc010359e:	eb 4b                	jmp    ffffffffc01035eb <__truncxfdf2+0xf8>
ffffffffc01035a0:	66 81 f9 c1 3b       	cmp    $0x3bc1,%cx
ffffffffc01035a5:	73 04                	jae    ffffffffc01035ab <__truncxfdf2+0xb8>
ffffffffc01035a7:	31 c9                	xor    %ecx,%ecx
ffffffffc01035a9:	eb 40                	jmp    ffffffffc01035eb <__truncxfdf2+0xf8>
ffffffffc01035ab:	89 c1                	mov    %eax,%ecx
ffffffffc01035ad:	f6 d9                	neg    %cl
ffffffffc01035af:	48 89 d6             	mov    %rdx,%rsi
ffffffffc01035b2:	48 d3 e6             	shl    %cl,%rsi
ffffffffc01035b5:	31 ff                	xor    %edi,%edi
ffffffffc01035b7:	48 85 f6             	test   %rsi,%rsi
ffffffffc01035ba:	40 0f 95 c7          	setne  %dil
ffffffffc01035be:	48 d3 ea             	shr    %cl,%rdx
ffffffffc01035c1:	48 89 d1             	mov    %rdx,%rcx
ffffffffc01035c4:	48 c1 e9 0b          	shr    $0xb,%rcx
ffffffffc01035c8:	81 e2 ff 07 00 00    	and    $0x7ff,%edx
ffffffffc01035ce:	48 09 fa             	or     %rdi,%rdx
ffffffffc01035d1:	48 81 fa 01 04 00 00 	cmp    $0x401,%rdx
ffffffffc01035d8:	72 05                	jb     ffffffffc01035df <__truncxfdf2+0xec>
ffffffffc01035da:	48 ff c1             	inc    %rcx
ffffffffc01035dd:	eb 0c                	jmp    ffffffffc01035eb <__truncxfdf2+0xf8>
ffffffffc01035df:	81 fa 00 04 00 00    	cmp    $0x400,%edx
ffffffffc01035e5:	75 04                	jne    ffffffffc01035eb <__truncxfdf2+0xf8>
ffffffffc01035e7:	89 ca                	mov    %ecx,%edx
ffffffffc01035e9:	eb 9a                	jmp    ffffffffc0103585 <__truncxfdf2+0x92>
ffffffffc01035eb:	25 00 80 00 00       	and    $0x8000,%eax
ffffffffc01035f0:	48 c1 e0 30          	shl    $0x30,%rax
ffffffffc01035f4:	48 09 c8             	or     %rcx,%rax
ffffffffc01035f7:	66 48 0f 6e c0       	movq   %rax,%xmm0
ffffffffc01035fc:	c3                   	ret

ffffffffc01035fd <__trunctfhf2>:
ffffffffc01035fd:	55                   	push   %rbp
ffffffffc01035fe:	41 57                	push   %r15
ffffffffc0103600:	41 56                	push   %r14
ffffffffc0103602:	41 54                	push   %r12
ffffffffc0103604:	53                   	push   %rbx
ffffffffc0103605:	48 83 ec 10          	sub    $0x10,%rsp
ffffffffc0103609:	66 0f 7f 04 24       	movdqa %xmm0,(%rsp)
ffffffffc010360e:	48 8b 1c 24          	mov    (%rsp),%rbx
ffffffffc0103612:	4c 8b 7c 24 08       	mov    0x8(%rsp),%r15
ffffffffc0103617:	4c 89 f8             	mov    %r15,%rax
ffffffffc010361a:	48 0f ba f0 3f       	btr    $0x3f,%rax
ffffffffc010361f:	48 b9 00 00 00 00 00 	movabs $0xc00f000000000000,%rcx
ffffffffc0103626:	00 0f c0 
ffffffffc0103629:	48 01 c1             	add    %rax,%rcx
ffffffffc010362c:	48 ba 00 00 00 00 00 	movabs $0xbff1000000000000,%rdx
ffffffffc0103633:	00 f1 bf 
ffffffffc0103636:	48 01 c2             	add    %rax,%rdx
ffffffffc0103639:	48 39 d1             	cmp    %rdx,%rcx
ffffffffc010363c:	73 34                	jae    ffffffffc0103672 <__trunctfhf2+0x75>
ffffffffc010363e:	48 89 c1             	mov    %rax,%rcx
ffffffffc0103641:	48 c1 e9 26          	shr    $0x26,%rcx
ffffffffc0103645:	48 be ff ff ff ff 3f 	movabs $0x3fffffffff,%rsi
ffffffffc010364c:	00 00 00 
ffffffffc010364f:	48 21 c6             	and    %rax,%rsi
ffffffffc0103652:	48 89 d8             	mov    %rbx,%rax
ffffffffc0103655:	48 f7 d8             	neg    %rax
ffffffffc0103658:	48 b8 00 00 00 00 20 	movabs $0x2000000000,%rax
ffffffffc010365f:	00 00 00 
ffffffffc0103662:	48 19 f0             	sbb    %rsi,%rax
ffffffffc0103665:	73 35                	jae    ffffffffc010369c <__trunctfhf2+0x9f>
ffffffffc0103667:	8d 91 01 40 00 00    	lea    0x4001(%rcx),%edx
ffffffffc010366d:	e9 eb 00 00 00       	jmp    ffffffffc010375d <__trunctfhf2+0x160>
ffffffffc0103672:	48 89 d9             	mov    %rbx,%rcx
ffffffffc0103675:	48 f7 d9             	neg    %rcx
ffffffffc0103678:	48 b9 00 00 00 00 00 	movabs $0x7fff000000000000,%rcx
ffffffffc010367f:	00 ff 7f 
ffffffffc0103682:	48 19 c1             	sbb    %rax,%rcx
ffffffffc0103685:	73 35                	jae    ffffffffc01036bc <__trunctfhf2+0xbf>
ffffffffc0103687:	48 c1 e8 26          	shr    $0x26,%rax
ffffffffc010368b:	25 ff 01 00 00       	and    $0x1ff,%eax
ffffffffc0103690:	0d 00 7e 00 00       	or     $0x7e00,%eax
ffffffffc0103695:	89 c2                	mov    %eax,%edx
ffffffffc0103697:	e9 c1 00 00 00       	jmp    ffffffffc010375d <__trunctfhf2+0x160>
ffffffffc010369c:	89 ca                	mov    %ecx,%edx
ffffffffc010369e:	81 c2 00 40 00 00    	add    $0x4000,%edx
ffffffffc01036a4:	48 0f ba fe 25       	btc    $0x25,%rsi
ffffffffc01036a9:	48 09 f3             	or     %rsi,%rbx
ffffffffc01036ac:	0f 85 ab 00 00 00    	jne    ffffffffc010375d <__trunctfhf2+0x160>
ffffffffc01036b2:	83 e1 01             	and    $0x1,%ecx
ffffffffc01036b5:	01 ca                	add    %ecx,%edx
ffffffffc01036b7:	e9 a1 00 00 00       	jmp    ffffffffc010375d <__trunctfhf2+0x160>
ffffffffc01036bc:	48 c1 e8 30          	shr    $0x30,%rax
ffffffffc01036c0:	66 ba 00 7c          	mov    $0x7c00,%dx
ffffffffc01036c4:	3d 0e 40 00 00       	cmp    $0x400e,%eax
ffffffffc01036c9:	0f 87 8e 00 00 00    	ja     ffffffffc010375d <__trunctfhf2+0x160>
ffffffffc01036cf:	bd f1 3f 00 00       	mov    $0x3ff1,%ebp
ffffffffc01036d4:	29 c5                	sub    %eax,%ebp
ffffffffc01036d6:	83 fd 70             	cmp    $0x70,%ebp
ffffffffc01036d9:	76 04                	jbe    ffffffffc01036df <__trunctfhf2+0xe2>
ffffffffc01036db:	31 d2                	xor    %edx,%edx
ffffffffc01036dd:	eb 7e                	jmp    ffffffffc010375d <__trunctfhf2+0x160>
ffffffffc01036df:	49 be ff ff ff ff ff 	movabs $0xffffffffffff,%r14
ffffffffc01036e6:	ff 00 00 
ffffffffc01036e9:	4d 21 fe             	and    %r15,%r14
ffffffffc01036ec:	49 0f ba ee 30       	bts    $0x30,%r14
ffffffffc01036f1:	04 0f                	add    $0xf,%al
ffffffffc01036f3:	24 7f                	and    $0x7f,%al
ffffffffc01036f5:	0f b6 d0             	movzbl %al,%edx
ffffffffc01036f8:	48 89 df             	mov    %rbx,%rdi
ffffffffc01036fb:	4c 89 f6             	mov    %r14,%rsi
ffffffffc01036fe:	e8 63 e2 ff ff       	call   ffffffffc0101966 <__ashlti3>
ffffffffc0103703:	45 31 e4             	xor    %r12d,%r12d
ffffffffc0103706:	48 09 c2             	or     %rax,%rdx
ffffffffc0103709:	41 0f 95 c4          	setne  %r12b
ffffffffc010370d:	40 0f b6 d5          	movzbl %bpl,%edx
ffffffffc0103711:	48 89 df             	mov    %rbx,%rdi
ffffffffc0103714:	4c 89 f6             	mov    %r14,%rsi
ffffffffc0103717:	e8 b6 e2 ff ff       	call   ffffffffc01019d2 <__lshrti3>
ffffffffc010371c:	48 b9 ff ff ff ff 3f 	movabs $0x3fffffffff,%rcx
ffffffffc0103723:	00 00 00 
ffffffffc0103726:	48 21 d1             	and    %rdx,%rcx
ffffffffc0103729:	48 c1 ea 26          	shr    $0x26,%rdx
ffffffffc010372d:	4c 09 e0             	or     %r12,%rax
ffffffffc0103730:	48 83 f8 01          	cmp    $0x1,%rax
ffffffffc0103734:	48 be 00 00 00 00 20 	movabs $0x2000000000,%rsi
ffffffffc010373b:	00 00 00 
ffffffffc010373e:	48 89 cf             	mov    %rcx,%rdi
ffffffffc0103741:	48 19 f7             	sbb    %rsi,%rdi
ffffffffc0103744:	72 04                	jb     ffffffffc010374a <__trunctfhf2+0x14d>
ffffffffc0103746:	ff c2                	inc    %edx
ffffffffc0103748:	eb 13                	jmp    ffffffffc010375d <__trunctfhf2+0x160>
ffffffffc010374a:	48 0f ba f9 25       	btc    $0x25,%rcx
ffffffffc010374f:	48 09 c8             	or     %rcx,%rax
ffffffffc0103752:	75 09                	jne    ffffffffc010375d <__trunctfhf2+0x160>
ffffffffc0103754:	89 d0                	mov    %edx,%eax
ffffffffc0103756:	83 e0 01             	and    $0x1,%eax
ffffffffc0103759:	01 d0                	add    %edx,%eax
ffffffffc010375b:	89 c2                	mov    %eax,%edx
ffffffffc010375d:	49 c1 ef 30          	shr    $0x30,%r15
ffffffffc0103761:	41 81 e7 00 80 00 00 	and    $0x8000,%r15d
ffffffffc0103768:	44 09 fa             	or     %r15d,%edx
ffffffffc010376b:	66 0f c4 c2 00       	pinsrw $0x0,%edx,%xmm0
ffffffffc0103770:	48 83 c4 10          	add    $0x10,%rsp
ffffffffc0103774:	5b                   	pop    %rbx
ffffffffc0103775:	41 5c                	pop    %r12
ffffffffc0103777:	41 5e                	pop    %r14
ffffffffc0103779:	41 5f                	pop    %r15
ffffffffc010377b:	5d                   	pop    %rbp
ffffffffc010377c:	c3                   	ret

ffffffffc010377d <__trunctfsf2>:
ffffffffc010377d:	55                   	push   %rbp
ffffffffc010377e:	41 57                	push   %r15
ffffffffc0103780:	41 56                	push   %r14
ffffffffc0103782:	41 54                	push   %r12
ffffffffc0103784:	53                   	push   %rbx
ffffffffc0103785:	48 83 ec 10          	sub    $0x10,%rsp
ffffffffc0103789:	0f 29 04 24          	movaps %xmm0,(%rsp)
ffffffffc010378d:	48 8b 1c 24          	mov    (%rsp),%rbx
ffffffffc0103791:	4c 8b 7c 24 08       	mov    0x8(%rsp),%r15
ffffffffc0103796:	4c 89 f8             	mov    %r15,%rax
ffffffffc0103799:	48 0f ba f0 3f       	btr    $0x3f,%rax
ffffffffc010379e:	48 b9 00 00 00 00 00 	movabs $0xc07f000000000000,%rcx
ffffffffc01037a5:	00 7f c0 
ffffffffc01037a8:	48 01 c1             	add    %rax,%rcx
ffffffffc01037ab:	48 ba 00 00 00 00 00 	movabs $0xbf81000000000000,%rdx
ffffffffc01037b2:	00 81 bf 
ffffffffc01037b5:	48 01 c2             	add    %rax,%rdx
ffffffffc01037b8:	48 39 d1             	cmp    %rdx,%rcx
ffffffffc01037bb:	73 29                	jae    ffffffffc01037e6 <__trunctfsf2+0x69>
ffffffffc01037bd:	48 89 c2             	mov    %rax,%rdx
ffffffffc01037c0:	48 c1 ea 19          	shr    $0x19,%rdx
ffffffffc01037c4:	25 ff ff ff 01       	and    $0x1ffffff,%eax
ffffffffc01037c9:	48 89 d9             	mov    %rbx,%rcx
ffffffffc01037cc:	48 f7 d9             	neg    %rcx
ffffffffc01037cf:	b9 00 00 00 01       	mov    $0x1000000,%ecx
ffffffffc01037d4:	48 19 c1             	sbb    %rax,%rcx
ffffffffc01037d7:	73 37                	jae    ffffffffc0103810 <__trunctfsf2+0x93>
ffffffffc01037d9:	81 c2 01 00 00 40    	add    $0x40000001,%edx
ffffffffc01037df:	89 d1                	mov    %edx,%ecx
ffffffffc01037e1:	e9 e1 00 00 00       	jmp    ffffffffc01038c7 <__trunctfsf2+0x14a>
ffffffffc01037e6:	48 89 d9             	mov    %rbx,%rcx
ffffffffc01037e9:	48 f7 d9             	neg    %rcx
ffffffffc01037ec:	48 b9 00 00 00 00 00 	movabs $0x7fff000000000000,%rcx
ffffffffc01037f3:	00 ff 7f 
ffffffffc01037f6:	48 19 c1             	sbb    %rax,%rcx
ffffffffc01037f9:	73 34                	jae    ffffffffc010382f <__trunctfsf2+0xb2>
ffffffffc01037fb:	48 c1 e8 19          	shr    $0x19,%rax
ffffffffc01037ff:	25 ff ff 3f 00       	and    $0x3fffff,%eax
ffffffffc0103804:	0d 00 00 c0 7f       	or     $0x7fc00000,%eax
ffffffffc0103809:	89 c1                	mov    %eax,%ecx
ffffffffc010380b:	e9 b7 00 00 00       	jmp    ffffffffc01038c7 <__trunctfsf2+0x14a>
ffffffffc0103810:	8d 8a 00 00 00 40    	lea    0x40000000(%rdx),%ecx
ffffffffc0103816:	48 35 00 00 00 01    	xor    $0x1000000,%rax
ffffffffc010381c:	48 09 c3             	or     %rax,%rbx
ffffffffc010381f:	0f 85 a2 00 00 00    	jne    ffffffffc01038c7 <__trunctfsf2+0x14a>
ffffffffc0103825:	83 e2 01             	and    $0x1,%edx
ffffffffc0103828:	01 d1                	add    %edx,%ecx
ffffffffc010382a:	e9 98 00 00 00       	jmp    ffffffffc01038c7 <__trunctfsf2+0x14a>
ffffffffc010382f:	48 c1 e8 30          	shr    $0x30,%rax
ffffffffc0103833:	b9 00 00 80 7f       	mov    $0x7f800000,%ecx
ffffffffc0103838:	3d 7e 40 00 00       	cmp    $0x407e,%eax
ffffffffc010383d:	0f 87 84 00 00 00    	ja     ffffffffc01038c7 <__trunctfsf2+0x14a>
ffffffffc0103843:	bd 81 3f 00 00       	mov    $0x3f81,%ebp
ffffffffc0103848:	29 c5                	sub    %eax,%ebp
ffffffffc010384a:	31 c9                	xor    %ecx,%ecx
ffffffffc010384c:	83 fd 70             	cmp    $0x70,%ebp
ffffffffc010384f:	77 76                	ja     ffffffffc01038c7 <__trunctfsf2+0x14a>
ffffffffc0103851:	49 be ff ff ff ff ff 	movabs $0xffffffffffff,%r14
ffffffffc0103858:	ff 00 00 
ffffffffc010385b:	4d 21 fe             	and    %r15,%r14
ffffffffc010385e:	49 0f ba ee 30       	bts    $0x30,%r14
ffffffffc0103863:	fe c8                	dec    %al
ffffffffc0103865:	24 7f                	and    $0x7f,%al
ffffffffc0103867:	0f b6 d0             	movzbl %al,%edx
ffffffffc010386a:	48 89 df             	mov    %rbx,%rdi
ffffffffc010386d:	4c 89 f6             	mov    %r14,%rsi
ffffffffc0103870:	e8 f1 e0 ff ff       	call   ffffffffc0101966 <__ashlti3>
ffffffffc0103875:	45 31 e4             	xor    %r12d,%r12d
ffffffffc0103878:	48 09 c2             	or     %rax,%rdx
ffffffffc010387b:	41 0f 95 c4          	setne  %r12b
ffffffffc010387f:	40 0f b6 d5          	movzbl %bpl,%edx
ffffffffc0103883:	48 89 df             	mov    %rbx,%rdi
ffffffffc0103886:	4c 89 f6             	mov    %r14,%rsi
ffffffffc0103889:	e8 44 e1 ff ff       	call   ffffffffc01019d2 <__lshrti3>
ffffffffc010388e:	48 89 d1             	mov    %rdx,%rcx
ffffffffc0103891:	48 c1 e9 19          	shr    $0x19,%rcx
ffffffffc0103895:	81 e2 ff ff ff 01    	and    $0x1ffffff,%edx
ffffffffc010389b:	4c 09 e0             	or     %r12,%rax
ffffffffc010389e:	48 83 f8 01          	cmp    $0x1,%rax
ffffffffc01038a2:	48 89 d6             	mov    %rdx,%rsi
ffffffffc01038a5:	48 81 de 00 00 00 01 	sbb    $0x1000000,%rsi
ffffffffc01038ac:	72 04                	jb     ffffffffc01038b2 <__trunctfsf2+0x135>
ffffffffc01038ae:	ff c1                	inc    %ecx
ffffffffc01038b0:	eb 15                	jmp    ffffffffc01038c7 <__trunctfsf2+0x14a>
ffffffffc01038b2:	48 81 f2 00 00 00 01 	xor    $0x1000000,%rdx
ffffffffc01038b9:	48 09 d0             	or     %rdx,%rax
ffffffffc01038bc:	75 09                	jne    ffffffffc01038c7 <__trunctfsf2+0x14a>
ffffffffc01038be:	89 c8                	mov    %ecx,%eax
ffffffffc01038c0:	83 e0 01             	and    $0x1,%eax
ffffffffc01038c3:	01 c8                	add    %ecx,%eax
ffffffffc01038c5:	89 c1                	mov    %eax,%ecx
ffffffffc01038c7:	49 c1 ef 20          	shr    $0x20,%r15
ffffffffc01038cb:	41 81 e7 00 00 00 80 	and    $0x80000000,%r15d
ffffffffc01038d2:	41 09 cf             	or     %ecx,%r15d
ffffffffc01038d5:	66 41 0f 6e c7       	movd   %r15d,%xmm0
ffffffffc01038da:	48 83 c4 10          	add    $0x10,%rsp
ffffffffc01038de:	5b                   	pop    %rbx
ffffffffc01038df:	41 5c                	pop    %r12
ffffffffc01038e1:	41 5e                	pop    %r14
ffffffffc01038e3:	41 5f                	pop    %r15
ffffffffc01038e5:	5d                   	pop    %rbp
ffffffffc01038e6:	c3                   	ret

ffffffffc01038e7 <__trunctfdf2>:
ffffffffc01038e7:	55                   	push   %rbp
ffffffffc01038e8:	41 57                	push   %r15
ffffffffc01038ea:	41 56                	push   %r14
ffffffffc01038ec:	41 54                	push   %r12
ffffffffc01038ee:	53                   	push   %rbx
ffffffffc01038ef:	48 83 ec 10          	sub    $0x10,%rsp
ffffffffc01038f3:	0f 29 04 24          	movaps %xmm0,(%rsp)
ffffffffc01038f7:	48 8b 1c 24          	mov    (%rsp),%rbx
ffffffffc01038fb:	4c 8b 7c 24 08       	mov    0x8(%rsp),%r15
ffffffffc0103900:	4c 89 f8             	mov    %r15,%rax
ffffffffc0103903:	48 0f ba f0 3f       	btr    $0x3f,%rax
ffffffffc0103908:	48 b9 00 00 00 00 00 	movabs $0xc3ff000000000000,%rcx
ffffffffc010390f:	00 ff c3 
ffffffffc0103912:	48 01 c1             	add    %rax,%rcx
ffffffffc0103915:	48 ba 00 00 00 00 00 	movabs $0xbc01000000000000,%rdx
ffffffffc010391c:	00 01 bc 
ffffffffc010391f:	48 01 c2             	add    %rax,%rdx
ffffffffc0103922:	48 39 d1             	cmp    %rdx,%rcx
ffffffffc0103925:	73 3b                	jae    ffffffffc0103962 <__trunctfdf2+0x7b>
ffffffffc0103927:	48 b9 00 00 00 00 00 	movabs $0x4000000000000000,%rcx
ffffffffc010392e:	00 00 40 
ffffffffc0103931:	48 0f a4 d8 04       	shld   $0x4,%rbx,%rax
ffffffffc0103936:	48 8d 14 08          	lea    (%rax,%rcx,1),%rdx
ffffffffc010393a:	48 be ff ff ff ff ff 	movabs $0xfffffffffffffff,%rsi
ffffffffc0103941:	ff ff 0f 
ffffffffc0103944:	48 21 de             	and    %rbx,%rsi
ffffffffc0103947:	48 bf 00 00 00 00 00 	movabs $0x800000000000000,%rdi
ffffffffc010394e:	00 00 08 
ffffffffc0103951:	48 39 fe             	cmp    %rdi,%rsi
ffffffffc0103954:	76 45                	jbe    ffffffffc010399b <__trunctfdf2+0xb4>
ffffffffc0103956:	48 8d 14 01          	lea    (%rcx,%rax,1),%rdx
ffffffffc010395a:	48 ff c2             	inc    %rdx
ffffffffc010395d:	e9 f0 00 00 00       	jmp    ffffffffc0103a52 <__trunctfdf2+0x16b>
ffffffffc0103962:	48 89 d9             	mov    %rbx,%rcx
ffffffffc0103965:	48 f7 d9             	neg    %rcx
ffffffffc0103968:	48 b9 00 00 00 00 00 	movabs $0x7fff000000000000,%rcx
ffffffffc010396f:	00 ff 7f 
ffffffffc0103972:	48 19 c1             	sbb    %rax,%rcx
ffffffffc0103975:	73 35                	jae    ffffffffc01039ac <__trunctfdf2+0xc5>
ffffffffc0103977:	48 0f a4 d8 04       	shld   $0x4,%rbx,%rax
ffffffffc010397c:	48 b9 ff ff ff ff ff 	movabs $0x7ffffffffffff,%rcx
ffffffffc0103983:	ff 07 00 
ffffffffc0103986:	48 21 c1             	and    %rax,%rcx
ffffffffc0103989:	48 ba 00 00 00 00 00 	movabs $0x7ff8000000000000,%rdx
ffffffffc0103990:	00 f8 7f 
ffffffffc0103993:	48 09 ca             	or     %rcx,%rdx
ffffffffc0103996:	e9 b7 00 00 00       	jmp    ffffffffc0103a52 <__trunctfdf2+0x16b>
ffffffffc010399b:	0f 85 b1 00 00 00    	jne    ffffffffc0103a52 <__trunctfdf2+0x16b>
ffffffffc01039a1:	83 e0 01             	and    $0x1,%eax
ffffffffc01039a4:	48 01 c2             	add    %rax,%rdx
ffffffffc01039a7:	e9 a6 00 00 00       	jmp    ffffffffc0103a52 <__trunctfdf2+0x16b>
ffffffffc01039ac:	48 c1 e8 30          	shr    $0x30,%rax
ffffffffc01039b0:	3d fe 43 00 00       	cmp    $0x43fe,%eax
ffffffffc01039b5:	76 0f                	jbe    ffffffffc01039c6 <__trunctfdf2+0xdf>
ffffffffc01039b7:	48 ba 00 00 00 00 00 	movabs $0x7ff0000000000000,%rdx
ffffffffc01039be:	00 f0 7f 
ffffffffc01039c1:	e9 8c 00 00 00       	jmp    ffffffffc0103a52 <__trunctfdf2+0x16b>
ffffffffc01039c6:	bd 01 3c 00 00       	mov    $0x3c01,%ebp
ffffffffc01039cb:	29 c5                	sub    %eax,%ebp
ffffffffc01039cd:	83 fd 70             	cmp    $0x70,%ebp
ffffffffc01039d0:	76 04                	jbe    ffffffffc01039d6 <__trunctfdf2+0xef>
ffffffffc01039d2:	31 d2                	xor    %edx,%edx
ffffffffc01039d4:	eb 7c                	jmp    ffffffffc0103a52 <__trunctfdf2+0x16b>
ffffffffc01039d6:	49 be ff ff ff ff ff 	movabs $0xffffffffffff,%r14
ffffffffc01039dd:	ff 00 00 
ffffffffc01039e0:	4d 21 fe             	and    %r15,%r14
ffffffffc01039e3:	49 0f ba ee 30       	bts    $0x30,%r14
ffffffffc01039e8:	fe c8                	dec    %al
ffffffffc01039ea:	24 7f                	and    $0x7f,%al
ffffffffc01039ec:	0f b6 d0             	movzbl %al,%edx
ffffffffc01039ef:	48 89 df             	mov    %rbx,%rdi
ffffffffc01039f2:	4c 89 f6             	mov    %r14,%rsi
ffffffffc01039f5:	e8 6c df ff ff       	call   ffffffffc0101966 <__ashlti3>
ffffffffc01039fa:	45 31 e4             	xor    %r12d,%r12d
ffffffffc01039fd:	48 09 c2             	or     %rax,%rdx
ffffffffc0103a00:	41 0f 95 c4          	setne  %r12b
ffffffffc0103a04:	40 0f b6 d5          	movzbl %bpl,%edx
ffffffffc0103a08:	48 89 df             	mov    %rbx,%rdi
ffffffffc0103a0b:	4c 89 f6             	mov    %r14,%rsi
ffffffffc0103a0e:	e8 bf df ff ff       	call   ffffffffc01019d2 <__lshrti3>
ffffffffc0103a13:	48 0f a4 c2 04       	shld   $0x4,%rax,%rdx
ffffffffc0103a18:	48 b9 ff ff ff ff ff 	movabs $0xfffffffffffffff,%rcx
ffffffffc0103a1f:	ff ff 0f 
ffffffffc0103a22:	48 21 c1             	and    %rax,%rcx
ffffffffc0103a25:	4c 09 e1             	or     %r12,%rcx
ffffffffc0103a28:	48 b8 01 00 00 00 00 	movabs $0x800000000000001,%rax
ffffffffc0103a2f:	00 00 08 
ffffffffc0103a32:	48 39 c1             	cmp    %rax,%rcx
ffffffffc0103a35:	72 05                	jb     ffffffffc0103a3c <__trunctfdf2+0x155>
ffffffffc0103a37:	48 ff c2             	inc    %rdx
ffffffffc0103a3a:	eb 16                	jmp    ffffffffc0103a52 <__trunctfdf2+0x16b>
ffffffffc0103a3c:	48 b8 00 00 00 00 00 	movabs $0x800000000000000,%rax
ffffffffc0103a43:	00 00 08 
ffffffffc0103a46:	48 39 c1             	cmp    %rax,%rcx
ffffffffc0103a49:	75 07                	jne    ffffffffc0103a52 <__trunctfdf2+0x16b>
ffffffffc0103a4b:	89 d0                	mov    %edx,%eax
ffffffffc0103a4d:	e9 4f ff ff ff       	jmp    ffffffffc01039a1 <__trunctfdf2+0xba>
ffffffffc0103a52:	48 b8 00 00 00 00 00 	movabs $0x8000000000000000,%rax
ffffffffc0103a59:	00 00 80 
ffffffffc0103a5c:	49 21 c7             	and    %rax,%r15
ffffffffc0103a5f:	49 09 d7             	or     %rdx,%r15
ffffffffc0103a62:	66 49 0f 6e c7       	movq   %r15,%xmm0
ffffffffc0103a67:	48 83 c4 10          	add    $0x10,%rsp
ffffffffc0103a6b:	5b                   	pop    %rbx
ffffffffc0103a6c:	41 5c                	pop    %r12
ffffffffc0103a6e:	41 5e                	pop    %r14
ffffffffc0103a70:	41 5f                	pop    %r15
ffffffffc0103a72:	5d                   	pop    %rbp
ffffffffc0103a73:	c3                   	ret

ffffffffc0103a74 <__trunctfxf2>:
ffffffffc0103a74:	0f 29 44 24 d8       	movaps %xmm0,-0x28(%rsp)
ffffffffc0103a79:	48 8b 7c 24 d8       	mov    -0x28(%rsp),%rdi
ffffffffc0103a7e:	48 8b 74 24 e0       	mov    -0x20(%rsp),%rsi
ffffffffc0103a83:	48 b9 ff ff ff ff ff 	movabs $0x7fffffffffffffff,%rcx
ffffffffc0103a8a:	ff ff 7f 
ffffffffc0103a8d:	48 89 f2             	mov    %rsi,%rdx
ffffffffc0103a90:	48 0f ba f2 3f       	btr    $0x3f,%rdx
ffffffffc0103a95:	48 0f a4 fe 0f       	shld   $0xf,%rdi,%rsi
ffffffffc0103a9a:	48 8d 41 01          	lea    0x1(%rcx),%rax
ffffffffc0103a9e:	48 09 f0             	or     %rsi,%rax
ffffffffc0103aa1:	48 83 ff 01          	cmp    $0x1,%rdi
ffffffffc0103aa5:	49 b8 00 00 00 00 00 	movabs $0x7fff000000000000,%r8
ffffffffc0103aac:	00 ff 7f 
ffffffffc0103aaf:	49 89 d1             	mov    %rdx,%r9
ffffffffc0103ab2:	4d 19 c1             	sbb    %r8,%r9
ffffffffc0103ab5:	66 41 b8 ff 7f       	mov    $0x7fff,%r8w
ffffffffc0103aba:	73 6f                	jae    ffffffffc0103b2b <__trunctfxf2+0xb7>
ffffffffc0103abc:	48 c1 ea 30          	shr    $0x30,%rdx
ffffffffc0103ac0:	49 b8 ff ff ff ff ff 	movabs $0x1ffffffffffff,%r8
ffffffffc0103ac7:	ff 01 00 
ffffffffc0103aca:	4c 21 c7             	and    %r8,%rdi
ffffffffc0103acd:	49 b8 01 00 00 00 00 	movabs $0x1000000000001,%r8
ffffffffc0103ad4:	00 01 00 
ffffffffc0103ad7:	4c 39 c7             	cmp    %r8,%rdi
ffffffffc0103ada:	72 11                	jb     ffffffffc0103aed <__trunctfxf2+0x79>
ffffffffc0103adc:	48 8d 7c 24 b8       	lea    -0x48(%rsp),%rdi
ffffffffc0103ae1:	48 be 01 00 00 00 00 	movabs $0x1,%rsi
ffffffffc0103ae8:	00 00 00 
ffffffffc0103aeb:	eb 17                	jmp    ffffffffc0103b04 <__trunctfxf2+0x90>
ffffffffc0103aed:	49 b8 00 00 00 00 00 	movabs $0x1000000000000,%r8
ffffffffc0103af4:	00 01 00 
ffffffffc0103af7:	4c 39 c7             	cmp    %r8,%rdi
ffffffffc0103afa:	75 22                	jne    ffffffffc0103b1e <__trunctfxf2+0xaa>
ffffffffc0103afc:	83 e6 01             	and    $0x1,%esi
ffffffffc0103aff:	48 8d 7c 24 c0       	lea    -0x40(%rsp),%rdi
ffffffffc0103b04:	45 31 c0             	xor    %r8d,%r8d
ffffffffc0103b07:	48 01 f0             	add    %rsi,%rax
ffffffffc0103b0a:	41 0f 92 c0          	setb   %r8b
ffffffffc0103b0e:	0f 92 07             	setb   (%rdi)
ffffffffc0103b11:	0f b7 d2             	movzwl %dx,%edx
ffffffffc0103b14:	44 01 c2             	add    %r8d,%edx
ffffffffc0103b17:	49 c1 e0 3f          	shl    $0x3f,%r8
ffffffffc0103b1b:	4c 09 c0             	or     %r8,%rax
ffffffffc0103b1e:	48 21 c1             	and    %rax,%rcx
ffffffffc0103b21:	66 85 d2             	test   %dx,%dx
ffffffffc0103b24:	48 0f 44 c1          	cmove  %rcx,%rax
ffffffffc0103b28:	41 89 d0             	mov    %edx,%r8d
ffffffffc0103b2b:	0f 29 44 24 e8       	movaps %xmm0,-0x18(%rsp)
ffffffffc0103b30:	0f b7 4c 24 f6       	movzwl -0xa(%rsp),%ecx
ffffffffc0103b35:	81 e1 00 80 ff ff    	and    $0xffff8000,%ecx
ffffffffc0103b3b:	41 09 c8             	or     %ecx,%r8d
ffffffffc0103b3e:	48 89 44 24 c8       	mov    %rax,-0x38(%rsp)
ffffffffc0103b43:	66 44 89 44 24 d0    	mov    %r8w,-0x30(%rsp)
ffffffffc0103b49:	db 6c 24 c8          	fldt   -0x38(%rsp)
ffffffffc0103b4d:	c3                   	ret

ffffffffc0103b4e <__fixhfsi>:
ffffffffc0103b4e:	66 0f c5 d0 00       	pextrw $0x0,%xmm0,%edx
ffffffffc0103b53:	0f b7 f2             	movzwl %dx,%esi
ffffffffc0103b56:	c1 ee 0a             	shr    $0xa,%esi
ffffffffc0103b59:	89 f1                	mov    %esi,%ecx
ffffffffc0103b5b:	83 e1 1f             	and    $0x1f,%ecx
ffffffffc0103b5e:	31 c0                	xor    %eax,%eax
ffffffffc0103b60:	66 83 f9 0e          	cmp    $0xe,%cx
ffffffffc0103b64:	76 49                	jbe    ffffffffc0103baf <__fixhfsi+0x61>
ffffffffc0103b66:	8d 41 e1             	lea    -0x1f(%rcx),%eax
ffffffffc0103b69:	83 f8 ef             	cmp    $0xffffffef,%eax
ffffffffc0103b6c:	77 0e                	ja     ffffffffc0103b7c <__fixhfsi+0x2e>
ffffffffc0103b6e:	31 c0                	xor    %eax,%eax
ffffffffc0103b70:	66 85 d2             	test   %dx,%dx
ffffffffc0103b73:	0f 98 c0             	sets   %al
ffffffffc0103b76:	05 ff ff ff 7f       	add    $0x7fffffff,%eax
ffffffffc0103b7b:	c3                   	ret
ffffffffc0103b7c:	89 d0                	mov    %edx,%eax
ffffffffc0103b7e:	25 ff 03 00 00       	and    $0x3ff,%eax
ffffffffc0103b83:	0d 00 04 00 00       	or     $0x400,%eax
ffffffffc0103b88:	66 83 f9 19          	cmp    $0x19,%cx
ffffffffc0103b8c:	73 0f                	jae    ffffffffc0103b9d <__fixhfsi+0x4f>
ffffffffc0103b8e:	b1 09                	mov    $0x9,%cl
ffffffffc0103b90:	40 28 f1             	sub    %sil,%cl
ffffffffc0103b93:	80 e1 0f             	and    $0xf,%cl
ffffffffc0103b96:	0f b7 f0             	movzwl %ax,%esi
ffffffffc0103b99:	d3 ee                	shr    %cl,%esi
ffffffffc0103b9b:	eb 08                	jmp    ffffffffc0103ba5 <__fixhfsi+0x57>
ffffffffc0103b9d:	0f b7 f0             	movzwl %ax,%esi
ffffffffc0103ba0:	80 c1 07             	add    $0x7,%cl
ffffffffc0103ba3:	d3 e6                	shl    %cl,%esi
ffffffffc0103ba5:	89 f0                	mov    %esi,%eax
ffffffffc0103ba7:	f7 d8                	neg    %eax
ffffffffc0103ba9:	66 85 d2             	test   %dx,%dx
ffffffffc0103bac:	0f 49 c6             	cmovns %esi,%eax
ffffffffc0103baf:	c3                   	ret

ffffffffc0103bb0 <__fixhfdi>:
ffffffffc0103bb0:	66 0f c5 d0 00       	pextrw $0x0,%xmm0,%edx
ffffffffc0103bb5:	0f b7 c2             	movzwl %dx,%eax
ffffffffc0103bb8:	c1 e8 0a             	shr    $0xa,%eax
ffffffffc0103bbb:	89 c1                	mov    %eax,%ecx
ffffffffc0103bbd:	83 e1 1f             	and    $0x1f,%ecx
ffffffffc0103bc0:	66 83 f9 0e          	cmp    $0xe,%cx
ffffffffc0103bc4:	77 03                	ja     ffffffffc0103bc9 <__fixhfdi+0x19>
ffffffffc0103bc6:	31 c0                	xor    %eax,%eax
ffffffffc0103bc8:	c3                   	ret
ffffffffc0103bc9:	8d 71 e1             	lea    -0x1f(%rcx),%esi
ffffffffc0103bcc:	83 fe ef             	cmp    $0xffffffef,%esi
ffffffffc0103bcf:	77 16                	ja     ffffffffc0103be7 <__fixhfdi+0x37>
ffffffffc0103bd1:	48 b9 ff ff ff ff ff 	movabs $0x7fffffffffffffff,%rcx
ffffffffc0103bd8:	ff ff 7f 
ffffffffc0103bdb:	48 8d 41 01          	lea    0x1(%rcx),%rax
ffffffffc0103bdf:	66 85 d2             	test   %dx,%dx
ffffffffc0103be2:	48 0f 49 c1          	cmovns %rcx,%rax
ffffffffc0103be6:	c3                   	ret
ffffffffc0103be7:	89 d6                	mov    %edx,%esi
ffffffffc0103be9:	81 e6 ff 03 00 00    	and    $0x3ff,%esi
ffffffffc0103bef:	81 ce 00 04 00 00    	or     $0x400,%esi
ffffffffc0103bf5:	66 83 f9 19          	cmp    $0x19,%cx
ffffffffc0103bf9:	73 0e                	jae    ffffffffc0103c09 <__fixhfdi+0x59>
ffffffffc0103bfb:	b1 09                	mov    $0x9,%cl
ffffffffc0103bfd:	28 c1                	sub    %al,%cl
ffffffffc0103bff:	80 e1 0f             	and    $0xf,%cl
ffffffffc0103c02:	0f b7 f6             	movzwl %si,%esi
ffffffffc0103c05:	d3 ee                	shr    %cl,%esi
ffffffffc0103c07:	eb 09                	jmp    ffffffffc0103c12 <__fixhfdi+0x62>
ffffffffc0103c09:	0f b7 f6             	movzwl %si,%esi
ffffffffc0103c0c:	80 c1 27             	add    $0x27,%cl
ffffffffc0103c0f:	48 d3 e6             	shl    %cl,%rsi
ffffffffc0103c12:	48 89 f0             	mov    %rsi,%rax
ffffffffc0103c15:	48 f7 d8             	neg    %rax
ffffffffc0103c18:	66 85 d2             	test   %dx,%dx
ffffffffc0103c1b:	48 0f 49 c6          	cmovns %rsi,%rax
ffffffffc0103c1f:	c3                   	ret

ffffffffc0103c20 <__fixhfti>:
ffffffffc0103c20:	53                   	push   %rbx
ffffffffc0103c21:	66 0f c5 d8 00       	pextrw $0x0,%xmm0,%ebx
ffffffffc0103c26:	0f b7 f3             	movzwl %bx,%esi
ffffffffc0103c29:	c1 ee 0a             	shr    $0xa,%esi
ffffffffc0103c2c:	89 f1                	mov    %esi,%ecx
ffffffffc0103c2e:	83 e1 1f             	and    $0x1f,%ecx
ffffffffc0103c31:	31 c0                	xor    %eax,%eax
ffffffffc0103c33:	ba 00 00 00 00       	mov    $0x0,%edx
ffffffffc0103c38:	66 83 f9 0e          	cmp    $0xe,%cx
ffffffffc0103c3c:	76 75                	jbe    ffffffffc0103cb3 <__fixhfti+0x93>
ffffffffc0103c3e:	8d 41 e1             	lea    -0x1f(%rcx),%eax
ffffffffc0103c41:	83 f8 ef             	cmp    $0xffffffef,%eax
ffffffffc0103c44:	77 1b                	ja     ffffffffc0103c61 <__fixhfti+0x41>
ffffffffc0103c46:	31 c0                	xor    %eax,%eax
ffffffffc0103c48:	66 85 db             	test   %bx,%bx
ffffffffc0103c4b:	0f 99 c0             	setns  %al
ffffffffc0103c4e:	48 f7 d8             	neg    %rax
ffffffffc0103c51:	48 ba 00 00 00 00 00 	movabs $0x8000000000000000,%rdx
ffffffffc0103c58:	00 00 80 
ffffffffc0103c5b:	48 83 da 00          	sbb    $0x0,%rdx
ffffffffc0103c5f:	eb 52                	jmp    ffffffffc0103cb3 <__fixhfti+0x93>
ffffffffc0103c61:	89 d8                	mov    %ebx,%eax
ffffffffc0103c63:	25 ff 03 00 00       	and    $0x3ff,%eax
ffffffffc0103c68:	0d 00 04 00 00       	or     $0x400,%eax
ffffffffc0103c6d:	66 83 f9 19          	cmp    $0x19,%cx
ffffffffc0103c71:	73 11                	jae    ffffffffc0103c84 <__fixhfti+0x64>
ffffffffc0103c73:	b1 09                	mov    $0x9,%cl
ffffffffc0103c75:	40 28 f1             	sub    %sil,%cl
ffffffffc0103c78:	80 e1 0f             	and    $0xf,%cl
ffffffffc0103c7b:	0f b7 f0             	movzwl %ax,%esi
ffffffffc0103c7e:	d3 ee                	shr    %cl,%esi
ffffffffc0103c80:	31 c9                	xor    %ecx,%ecx
ffffffffc0103c82:	eb 19                	jmp    ffffffffc0103c9d <__fixhfti+0x7d>
ffffffffc0103c84:	0f b7 f8             	movzwl %ax,%edi
ffffffffc0103c87:	80 c1 67             	add    $0x67,%cl
ffffffffc0103c8a:	80 e1 7f             	and    $0x7f,%cl
ffffffffc0103c8d:	0f b6 d1             	movzbl %cl,%edx
ffffffffc0103c90:	31 f6                	xor    %esi,%esi
ffffffffc0103c92:	e8 cf dc ff ff       	call   ffffffffc0101966 <__ashlti3>
ffffffffc0103c97:	48 89 c6             	mov    %rax,%rsi
ffffffffc0103c9a:	48 89 d1             	mov    %rdx,%rcx
ffffffffc0103c9d:	31 d2                	xor    %edx,%edx
ffffffffc0103c9f:	48 89 f0             	mov    %rsi,%rax
ffffffffc0103ca2:	48 f7 d8             	neg    %rax
ffffffffc0103ca5:	48 19 ca             	sbb    %rcx,%rdx
ffffffffc0103ca8:	66 85 db             	test   %bx,%bx
ffffffffc0103cab:	48 0f 49 c6          	cmovns %rsi,%rax
ffffffffc0103caf:	48 0f 49 d1          	cmovns %rcx,%rdx
ffffffffc0103cb3:	5b                   	pop    %rbx
ffffffffc0103cb4:	c3                   	ret

ffffffffc0103cb5 <__fixhfei>:
ffffffffc0103cb5:	55                   	push   %rbp
ffffffffc0103cb6:	41 57                	push   %r15
ffffffffc0103cb8:	41 56                	push   %r14
ffffffffc0103cba:	53                   	push   %rbx
ffffffffc0103cbb:	48 83 ec 18          	sub    $0x18,%rsp
ffffffffc0103cbf:	f3 0f 11 44 24 0c    	movss  %xmm0,0xc(%rsp)
ffffffffc0103cc5:	48 89 fb             	mov    %rdi,%rbx
ffffffffc0103cc8:	89 f7                	mov    %esi,%edi
ffffffffc0103cca:	e8 ae 01 00 00       	call   ffffffffc0103e7d <zig.target.intByteSize>
ffffffffc0103ccf:	89 c5                	mov    %eax,%ebp
ffffffffc0103cd1:	c1 e8 02             	shr    $0x2,%eax
ffffffffc0103cd4:	41 89 c7             	mov    %eax,%r15d
ffffffffc0103cd7:	41 81 e7 ff ff 01 00 	and    $0x1ffff,%r15d
ffffffffc0103cde:	25 ff 0f 00 00       	and    $0xfff,%eax
ffffffffc0103ce3:	66 83 f8 04          	cmp    $0x4,%ax
ffffffffc0103ce7:	77 5d                	ja     ffffffffc0103d46 <__fixhfei+0x91>
ffffffffc0103ce9:	42 ff 24 fd 00 60 11 	jmp    *-0x3feea000(,%r15,8)
ffffffffc0103cf0:	c0 
ffffffffc0103cf1:	f3 0f 10 44 24 0c    	movss  0xc(%rsp),%xmm0
ffffffffc0103cf7:	e8 7d ec ff ff       	call   ffffffffc0102979 <__extendhfsf2>
ffffffffc0103cfc:	f3 0f 2c c0          	cvttss2si %xmm0,%eax
ffffffffc0103d00:	89 03                	mov    %eax,(%rbx)
ffffffffc0103d02:	e9 6b 01 00 00       	jmp    ffffffffc0103e72 <__fixhfei+0x1bd>
ffffffffc0103d07:	f3 0f 10 44 24 0c    	movss  0xc(%rsp),%xmm0
ffffffffc0103d0d:	e8 0e ff ff ff       	call   ffffffffc0103c20 <__fixhfti>
ffffffffc0103d12:	48 89 53 08          	mov    %rdx,0x8(%rbx)
ffffffffc0103d16:	eb 10                	jmp    ffffffffc0103d28 <__fixhfei+0x73>
ffffffffc0103d18:	f3 0f 10 44 24 0c    	movss  0xc(%rsp),%xmm0
ffffffffc0103d1e:	e8 56 ec ff ff       	call   ffffffffc0102979 <__extendhfsf2>
ffffffffc0103d23:	f3 48 0f 2c c0       	cvttss2si %xmm0,%rax
ffffffffc0103d28:	48 89 03             	mov    %rax,(%rbx)
ffffffffc0103d2b:	e9 42 01 00 00       	jmp    ffffffffc0103e72 <__fixhfei+0x1bd>
ffffffffc0103d30:	f3 0f 10 44 24 0c    	movss  0xc(%rsp),%xmm0
ffffffffc0103d36:	e8 e5 fe ff ff       	call   ffffffffc0103c20 <__fixhfti>
ffffffffc0103d3b:	48 89 03             	mov    %rax,(%rbx)
ffffffffc0103d3e:	89 53 08             	mov    %edx,0x8(%rbx)
ffffffffc0103d41:	e9 2c 01 00 00       	jmp    ffffffffc0103e72 <__fixhfei+0x1bd>
ffffffffc0103d46:	4c 8d 74 24 10       	lea    0x10(%rsp),%r14
ffffffffc0103d4b:	4c 89 f7             	mov    %r14,%rdi
ffffffffc0103d4e:	f3 0f 10 44 24 0c    	movss  0xc(%rsp),%xmm0
ffffffffc0103d54:	e8 24 02 00 00       	call   ffffffffc0103f7d <math.frexp.frexp__anon_4934>
ffffffffc0103d59:	66 0f 6e 44 24 0c    	movd   0xc(%rsp),%xmm0
ffffffffc0103d5f:	49 63 06             	movslq (%r14),%rax
ffffffffc0103d62:	44 89 f9             	mov    %r15d,%ecx
ffffffffc0103d65:	c1 e1 05             	shl    $0x5,%ecx
ffffffffc0103d68:	31 ff                	xor    %edi,%edi
ffffffffc0103d6a:	48 39 c1             	cmp    %rax,%rcx
ffffffffc0103d6d:	40 0f 94 c7          	sete   %dil
ffffffffc0103d71:	83 c7 0b             	add    $0xb,%edi
ffffffffc0103d74:	29 f8                	sub    %edi,%eax
ffffffffc0103d76:	45 31 f6             	xor    %r14d,%r14d
ffffffffc0103d79:	85 c0                	test   %eax,%eax
ffffffffc0103d7b:	44 0f 4f f0          	cmovg  %eax,%r14d
ffffffffc0103d7f:	7e 0c                	jle    ffffffffc0103d8d <__fixhfei+0xd8>
ffffffffc0103d81:	66 0f c4 44 24 14 00 	pinsrw $0x0,0x14(%rsp),%xmm0
ffffffffc0103d88:	e8 76 02 00 00       	call   ffffffffc0104003 <math.ldexp.ldexp__anon_4946>
ffffffffc0103d8d:	e8 e7 eb ff ff       	call   ffffffffc0102979 <__extendhfsf2>
ffffffffc0103d92:	f3 0f 2c c0          	cvttss2si %xmm0,%eax
ffffffffc0103d96:	98                   	cwtl
ffffffffc0103d97:	44 89 f6             	mov    %r14d,%esi
ffffffffc0103d9a:	c1 ee 05             	shr    $0x5,%esi
ffffffffc0103d9d:	89 c2                	mov    %eax,%edx
ffffffffc0103d9f:	c1 ea 0b             	shr    $0xb,%edx
ffffffffc0103da2:	89 f1                	mov    %esi,%ecx
ffffffffc0103da4:	c1 e1 02             	shl    $0x2,%ecx
ffffffffc0103da7:	31 ff                	xor    %edi,%edi
ffffffffc0103da9:	48 39 f9             	cmp    %rdi,%rcx
ffffffffc0103dac:	74 0a                	je     ffffffffc0103db8 <__fixhfei+0x103>
ffffffffc0103dae:	83 24 3b 00          	andl   $0x0,(%rbx,%rdi,1)
ffffffffc0103db2:	48 83 c7 04          	add    $0x4,%rdi
ffffffffc0103db6:	eb f1                	jmp    ffffffffc0103da9 <__fixhfei+0xf4>
ffffffffc0103db8:	c1 e2 14             	shl    $0x14,%edx
ffffffffc0103dbb:	c1 fa 14             	sar    $0x14,%edx
ffffffffc0103dbe:	89 d7                	mov    %edx,%edi
ffffffffc0103dc0:	44 89 f1             	mov    %r14d,%ecx
ffffffffc0103dc3:	d3 e7                	shl    %cl,%edi
ffffffffc0103dc5:	8d 0c b5 00 00 00 00 	lea    0x0(,%rsi,4),%ecx
ffffffffc0103dcc:	89 3c 0b             	mov    %edi,(%rbx,%rcx,1)
ffffffffc0103dcf:	41 c1 e7 02          	shl    $0x2,%r15d
ffffffffc0103dd3:	48 83 c1 04          	add    $0x4,%rcx
ffffffffc0103dd7:	49 39 cf             	cmp    %rcx,%r15
ffffffffc0103dda:	74 05                	je     ffffffffc0103de1 <__fixhfei+0x12c>
ffffffffc0103ddc:	89 14 0b             	mov    %edx,(%rbx,%rcx,1)
ffffffffc0103ddf:	eb f2                	jmp    ffffffffc0103dd3 <__fixhfei+0x11e>
ffffffffc0103de1:	81 e5 ff ff 07 00    	and    $0x7ffff,%ebp
ffffffffc0103de7:	83 fd 04             	cmp    $0x4,%ebp
ffffffffc0103dea:	48 b9 aa aa aa aa aa 	movabs $0xaaaaaaaaaaaaaaaa,%rcx
ffffffffc0103df1:	aa aa aa 
ffffffffc0103df4:	48 0f 42 d9          	cmovb  %rcx,%rbx
ffffffffc0103df8:	44 89 f2             	mov    %r14d,%edx
ffffffffc0103dfb:	c1 ea 03             	shr    $0x3,%edx
ffffffffc0103dfe:	44 89 f1             	mov    %r14d,%ecx
ffffffffc0103e01:	80 e1 07             	and    $0x7,%cl
ffffffffc0103e04:	40 b7 ff             	mov    $0xff,%dil
ffffffffc0103e07:	40 d2 e7             	shl    %cl,%dil
ffffffffc0103e0a:	44 0f b6 04 13       	movzbl (%rbx,%rdx,1),%r8d
ffffffffc0103e0f:	40 f6 d7             	not    %dil
ffffffffc0103e12:	25 ff 0f 00 00       	and    $0xfff,%eax
ffffffffc0103e17:	89 c6                	mov    %eax,%esi
ffffffffc0103e19:	d3 e6                	shl    %cl,%esi
ffffffffc0103e1b:	40 0f b6 ff          	movzbl %dil,%edi
ffffffffc0103e1f:	44 21 c7             	and    %r8d,%edi
ffffffffc0103e22:	09 fe                	or     %edi,%esi
ffffffffc0103e24:	80 f9 05             	cmp    $0x5,%cl
ffffffffc0103e27:	72 22                	jb     ffffffffc0103e4b <__fixhfei+0x196>
ffffffffc0103e29:	40 8a 7c 13 02       	mov    0x2(%rbx,%rdx,1),%dil
ffffffffc0103e2e:	41 80 e6 03          	and    $0x3,%r14b
ffffffffc0103e32:	44 89 f1             	mov    %r14d,%ecx
ffffffffc0103e35:	40 d2 ef             	shr    %cl,%dil
ffffffffc0103e38:	40 d2 e7             	shl    %cl,%dil
ffffffffc0103e3b:	b1 0c                	mov    $0xc,%cl
ffffffffc0103e3d:	44 28 f1             	sub    %r14b,%cl
ffffffffc0103e40:	d3 e8                	shr    %cl,%eax
ffffffffc0103e42:	40 08 f8             	or     %dil,%al
ffffffffc0103e45:	88 44 13 02          	mov    %al,0x2(%rbx,%rdx,1)
ffffffffc0103e49:	eb 23                	jmp    ffffffffc0103e6e <__fixhfei+0x1b9>
ffffffffc0103e4b:	41 f6 c6 04          	test   $0x4,%r14b
ffffffffc0103e4f:	75 1d                	jne    ffffffffc0103e6e <__fixhfei+0x1b9>
ffffffffc0103e51:	0f b6 44 13 01       	movzbl 0x1(%rbx,%rdx,1),%eax
ffffffffc0103e56:	41 8d 4e 03          	lea    0x3(%r14),%ecx
ffffffffc0103e5a:	80 e1 07             	and    $0x7,%cl
ffffffffc0103e5d:	40 b7 fe             	mov    $0xfe,%dil
ffffffffc0103e60:	40 d2 e7             	shl    %cl,%dil
ffffffffc0103e63:	40 0f b6 cf          	movzbl %dil,%ecx
ffffffffc0103e67:	21 c1                	and    %eax,%ecx
ffffffffc0103e69:	c1 e1 08             	shl    $0x8,%ecx
ffffffffc0103e6c:	09 ce                	or     %ecx,%esi
ffffffffc0103e6e:	66 89 34 13          	mov    %si,(%rbx,%rdx,1)
ffffffffc0103e72:	48 83 c4 18          	add    $0x18,%rsp
ffffffffc0103e76:	5b                   	pop    %rbx
ffffffffc0103e77:	41 5e                	pop    %r14
ffffffffc0103e79:	41 5f                	pop    %r15
ffffffffc0103e7b:	5d                   	pop    %rbp
ffffffffc0103e7c:	c3                   	ret

ffffffffc0103e7d <zig.target.intByteSize>:
ffffffffc0103e7d:	0f b7 d7             	movzwl %di,%edx
ffffffffc0103e80:	83 c2 07             	add    $0x7,%edx
ffffffffc0103e83:	c1 ea 03             	shr    $0x3,%edx
ffffffffc0103e86:	0f b6 35 bb 25 01 00 	movzbl 0x125bb(%rip),%esi        # ffffffffc0116448 <builtin.target+0x30>
ffffffffc0103e8d:	89 f0                	mov    %esi,%eax
ffffffffc0103e8f:	24 3f                	and    $0x3f,%al
ffffffffc0103e91:	3c 2a                	cmp    $0x2a,%al
ffffffffc0103e93:	74 69                	je     ffffffffc0103efe <zig.target.intByteSize+0x81>
ffffffffc0103e95:	89 f0                	mov    %esi,%eax
ffffffffc0103e97:	83 e0 3f             	and    $0x3f,%eax
ffffffffc0103e9a:	83 f8 29             	cmp    $0x29,%eax
ffffffffc0103e9d:	0f 85 90 00 00 00    	jne    ffffffffc0103f33 <zig.target.intByteSize+0xb6>
ffffffffc0103ea3:	66 85 ff             	test   %di,%di
ffffffffc0103ea6:	0f 84 be 00 00 00    	je     ffffffffc0103f6a <zig.target.intByteSize+0xed>
ffffffffc0103eac:	66 b8 01 00          	mov    $0x1,%ax
ffffffffc0103eb0:	66 83 ff 09          	cmp    $0x9,%di
ffffffffc0103eb4:	0f 82 b2 00 00 00    	jb     ffffffffc0103f6c <zig.target.intByteSize+0xef>
ffffffffc0103eba:	66 b8 02 00          	mov    $0x2,%ax
ffffffffc0103ebe:	66 83 ff 11          	cmp    $0x11,%di
ffffffffc0103ec2:	0f 82 a4 00 00 00    	jb     ffffffffc0103f6c <zig.target.intByteSize+0xef>
ffffffffc0103ec8:	66 b8 04 00          	mov    $0x4,%ax
ffffffffc0103ecc:	66 83 ff 21          	cmp    $0x21,%di
ffffffffc0103ed0:	0f 82 96 00 00 00    	jb     ffffffffc0103f6c <zig.target.intByteSize+0xef>
ffffffffc0103ed6:	66 b8 10 00          	mov    $0x10,%ax
ffffffffc0103eda:	66 83 ff 41          	cmp    $0x41,%di
ffffffffc0103ede:	0f 83 88 00 00 00    	jae    ffffffffc0103f6c <zig.target.intByteSize+0xef>
ffffffffc0103ee4:	8a 05 16 26 01 00    	mov    0x12616(%rip),%al        # ffffffffc0116500 <builtin.target+0xe8>
ffffffffc0103eea:	04 27                	add    $0x27,%al
ffffffffc0103eec:	24 3f                	and    $0x3f,%al
ffffffffc0103eee:	31 c9                	xor    %ecx,%ecx
ffffffffc0103ef0:	3c 02                	cmp    $0x2,%al
ffffffffc0103ef2:	0f 92 c1             	setb   %cl
ffffffffc0103ef5:	8d 04 8d 04 00 00 00 	lea    0x4(,%rcx,4),%eax
ffffffffc0103efc:	eb 6e                	jmp    ffffffffc0103f6c <zig.target.intByteSize+0xef>
ffffffffc0103efe:	66 85 ff             	test   %di,%di
ffffffffc0103f01:	74 67                	je     ffffffffc0103f6a <zig.target.intByteSize+0xed>
ffffffffc0103f03:	66 b8 01 00          	mov    $0x1,%ax
ffffffffc0103f07:	66 83 ff 09          	cmp    $0x9,%di
ffffffffc0103f0b:	72 5f                	jb     ffffffffc0103f6c <zig.target.intByteSize+0xef>
ffffffffc0103f0d:	66 b8 02 00          	mov    $0x2,%ax
ffffffffc0103f11:	66 83 ff 11          	cmp    $0x11,%di
ffffffffc0103f15:	72 55                	jb     ffffffffc0103f6c <zig.target.intByteSize+0xef>
ffffffffc0103f17:	66 b8 04 00          	mov    $0x4,%ax
ffffffffc0103f1b:	66 83 ff 21          	cmp    $0x21,%di
ffffffffc0103f1f:	72 4b                	jb     ffffffffc0103f6c <zig.target.intByteSize+0xef>
ffffffffc0103f21:	31 c0                	xor    %eax,%eax
ffffffffc0103f23:	66 83 ff 41          	cmp    $0x41,%di
ffffffffc0103f27:	0f 93 c0             	setae  %al
ffffffffc0103f2a:	8d 04 c5 08 00 00 00 	lea    0x8(,%rax,8),%eax
ffffffffc0103f31:	eb 39                	jmp    ffffffffc0103f6c <zig.target.intByteSize+0xef>
ffffffffc0103f33:	8d 42 ff             	lea    -0x1(%rdx),%eax
ffffffffc0103f36:	66 bf 1f 00          	mov    $0x1f,%di
ffffffffc0103f3a:	66 0f bd f8          	bsr    %ax,%di
ffffffffc0103f3e:	83 f7 0f             	xor    $0xf,%edi
ffffffffc0103f41:	b1 10                	mov    $0x10,%cl
ffffffffc0103f43:	40 28 f9             	sub    %dil,%cl
ffffffffc0103f46:	6a 01                	push   $0x1
ffffffffc0103f48:	58                   	pop    %rax
ffffffffc0103f49:	d3 e0                	shl    %cl,%eax
ffffffffc0103f4b:	25 ff ff 01 00       	and    $0x1ffff,%eax
ffffffffc0103f50:	40 80 f6 20          	xor    $0x20,%sil
ffffffffc0103f54:	40 0f b6 ce          	movzbl %sil,%ecx
ffffffffc0103f58:	83 e1 3f             	and    $0x3f,%ecx
ffffffffc0103f5b:	0f b7 8c 09 c8 83 11 	movzwl -0x3fee7c38(%rcx,%rcx,1),%ecx
ffffffffc0103f62:	c0 
ffffffffc0103f63:	39 c8                	cmp    %ecx,%eax
ffffffffc0103f65:	0f 43 c1             	cmovae %ecx,%eax
ffffffffc0103f68:	eb 02                	jmp    ffffffffc0103f6c <zig.target.intByteSize+0xef>
ffffffffc0103f6a:	31 c0                	xor    %eax,%eax
ffffffffc0103f6c:	0f b7 c0             	movzwl %ax,%eax
ffffffffc0103f6f:	8d 0c 02             	lea    (%rdx,%rax,1),%ecx
ffffffffc0103f72:	81 c1 ff ff 07 00    	add    $0x7ffff,%ecx
ffffffffc0103f78:	f7 d8                	neg    %eax
ffffffffc0103f7a:	21 c8                	and    %ecx,%eax
ffffffffc0103f7c:	c3                   	ret

ffffffffc0103f7d <math.frexp.frexp__anon_4934>:
ffffffffc0103f7d:	48 89 f8             	mov    %rdi,%rax
ffffffffc0103f80:	66 0f c5 d0 00       	pextrw $0x0,%xmm0,%edx
ffffffffc0103f85:	0f b7 f2             	movzwl %dx,%esi
ffffffffc0103f88:	c1 ee 0a             	shr    $0xa,%esi
ffffffffc0103f8b:	31 c9                	xor    %ecx,%ecx
ffffffffc0103f8d:	40 f6 c6 1f          	test   $0x1f,%sil
ffffffffc0103f91:	74 21                	je     ffffffffc0103fb4 <math.frexp.frexp__anon_4934+0x37>
ffffffffc0103f93:	89 f7                	mov    %esi,%edi
ffffffffc0103f95:	83 e7 1f             	and    $0x1f,%edi
ffffffffc0103f98:	83 ff 1f             	cmp    $0x1f,%edi
ffffffffc0103f9b:	74 5a                	je     ffffffffc0103ff7 <math.frexp.frexp__anon_4934+0x7a>
ffffffffc0103f9d:	81 e2 ff 83 ff ff    	and    $0xffff83ff,%edx
ffffffffc0103fa3:	81 ca 00 38 00 00    	or     $0x3800,%edx
ffffffffc0103fa9:	0f b7 ce             	movzwl %si,%ecx
ffffffffc0103fac:	83 e1 1f             	and    $0x1f,%ecx
ffffffffc0103faf:	83 c1 f2             	add    $0xfffffff2,%ecx
ffffffffc0103fb2:	eb 43                	jmp    ffffffffc0103ff7 <math.frexp.frexp__anon_4934+0x7a>
ffffffffc0103fb4:	66 f7 c2 ff 03       	test   $0x3ff,%dx
ffffffffc0103fb9:	74 3c                	je     ffffffffc0103ff7 <math.frexp.frexp__anon_4934+0x7a>
ffffffffc0103fbb:	89 d1                	mov    %edx,%ecx
ffffffffc0103fbd:	c1 e1 06             	shl    $0x6,%ecx
ffffffffc0103fc0:	66 0f bd f1          	bsr    %cx,%si
ffffffffc0103fc4:	83 f6 0f             	xor    $0xf,%esi
ffffffffc0103fc7:	8d 4e 01             	lea    0x1(%rsi),%ecx
ffffffffc0103fca:	89 d7                	mov    %edx,%edi
ffffffffc0103fcc:	81 e7 00 80 ff ff    	and    $0xffff8000,%edi
ffffffffc0103fd2:	80 e1 0f             	and    $0xf,%cl
ffffffffc0103fd5:	d3 e2                	shl    %cl,%edx
ffffffffc0103fd7:	81 e2 ff 03 00 00    	and    $0x3ff,%edx
ffffffffc0103fdd:	31 c9                	xor    %ecx,%ecx
ffffffffc0103fdf:	40 80 fe 09          	cmp    $0x9,%sil
ffffffffc0103fe3:	0f 42 ca             	cmovb  %edx,%ecx
ffffffffc0103fe6:	8d 14 0f             	lea    (%rdi,%rcx,1),%edx
ffffffffc0103fe9:	81 c2 00 38 00 00    	add    $0x3800,%edx
ffffffffc0103fef:	0f b7 f6             	movzwl %si,%esi
ffffffffc0103ff2:	6a f2                	push   $0xfffffffffffffff2
ffffffffc0103ff4:	59                   	pop    %rcx
ffffffffc0103ff5:	29 f1                	sub    %esi,%ecx
ffffffffc0103ff7:	89 08                	mov    %ecx,(%rax)
ffffffffc0103ff9:	66 89 50 04          	mov    %dx,0x4(%rax)
ffffffffc0103ffd:	66 83 60 06 00       	andw   $0x0,0x6(%rax)
ffffffffc0104002:	c3                   	ret

ffffffffc0104003 <math.ldexp.ldexp__anon_4946>:
ffffffffc0104003:	53                   	push   %rbx
ffffffffc0104004:	48 83 ec 10          	sub    $0x10,%rsp
ffffffffc0104008:	89 fb                	mov    %edi,%ebx
ffffffffc010400a:	0f 29 04 24          	movaps %xmm0,(%rsp)
ffffffffc010400e:	e8 66 e9 ff ff       	call   ffffffffc0102979 <__extendhfsf2>
ffffffffc0104013:	0f 2e c0             	ucomiss %xmm0,%xmm0
ffffffffc0104016:	0f 8a 1f 01 00 00    	jp     ffffffffc010413b <math.ldexp.ldexp__anon_4946+0x138>
ffffffffc010401c:	66 0f 6f 04 24       	movdqa (%rsp),%xmm0
ffffffffc0104021:	66 0f c5 c0 00       	pextrw $0x0,%xmm0,%eax
ffffffffc0104026:	89 c1                	mov    %eax,%ecx
ffffffffc0104028:	81 e1 ff 7f 00 00    	and    $0x7fff,%ecx
ffffffffc010402e:	66 81 f9 00 7c       	cmp    $0x7c00,%cx
ffffffffc0104033:	0f 83 fc 00 00 00    	jae    ffffffffc0104135 <math.ldexp.ldexp__anon_4946+0x132>
ffffffffc0104039:	89 c2                	mov    %eax,%edx
ffffffffc010403b:	81 e2 00 80 00 00    	and    $0x8000,%edx
ffffffffc0104041:	8d 0c 00             	lea    (%rax,%rax,1),%ecx
ffffffffc0104044:	66 81 f9 00 08       	cmp    $0x800,%cx
ffffffffc0104049:	73 15                	jae    ffffffffc0104060 <math.ldexp.ldexp__anon_4946+0x5d>
ffffffffc010404b:	66 be 1f 00          	mov    $0x1f,%si
ffffffffc010404f:	66 0f bd f1          	bsr    %cx,%si
ffffffffc0104053:	83 f6 0f             	xor    $0xf,%esi
ffffffffc0104056:	0f b7 ce             	movzwl %si,%ecx
ffffffffc0104059:	6a 05                	push   $0x5
ffffffffc010405b:	5e                   	pop    %rsi
ffffffffc010405c:	29 ce                	sub    %ecx,%esi
ffffffffc010405e:	eb 08                	jmp    ffffffffc0104068 <math.ldexp.ldexp__anon_4946+0x65>
ffffffffc0104060:	89 c6                	mov    %eax,%esi
ffffffffc0104062:	c1 ee 0a             	shr    $0xa,%esi
ffffffffc0104065:	83 e6 1f             	and    $0x1f,%esi
ffffffffc0104068:	85 db                	test   %ebx,%ebx
ffffffffc010406a:	78 19                	js     ffffffffc0104085 <math.ldexp.ldexp__anon_4946+0x82>
ffffffffc010406c:	6a 1e                	push   $0x1e
ffffffffc010406e:	59                   	pop    %rcx
ffffffffc010406f:	29 f1                	sub    %esi,%ecx
ffffffffc0104071:	39 cb                	cmp    %ecx,%ebx
ffffffffc0104073:	0f 8e 88 00 00 00    	jle    ffffffffc0104101 <math.ldexp.ldexp__anon_4946+0xfe>
ffffffffc0104079:	25 00 80 ff ff       	and    $0xffff8000,%eax
ffffffffc010407e:	0d 00 7c 00 00       	or     $0x7c00,%eax
ffffffffc0104083:	eb 75                	jmp    ffffffffc01040fa <math.ldexp.ldexp__anon_4946+0xf7>
ffffffffc0104085:	89 f1                	mov    %esi,%ecx
